
XpoleTD_1D:     file format elf64-x86-64


Disassembly of section .init:

0000000000401d00 <_init>:
  401d00:	48 83 ec 08          	sub    $0x8,%rsp
  401d04:	e8 83 05 00 00       	callq  40228c <call_gmon_start>
  401d09:	e8 02 06 00 00       	callq  402310 <frame_dummy>
  401d0e:	e8 bd 7e 00 00       	callq  409bd0 <__do_global_ctors_aux>
  401d13:	48 83 c4 08          	add    $0x8,%rsp
  401d17:	c3                   	retq   

Disassembly of section .plt:

0000000000401d18 <log10@plt-0x10>:
  401d18:	ff 35 b2 98 20 00    	pushq  0x2098b2(%rip)        # 60b5d0 <_GLOBAL_OFFSET_TABLE_+0x8>
  401d1e:	ff 25 b4 98 20 00    	jmpq   *0x2098b4(%rip)        # 60b5d8 <_GLOBAL_OFFSET_TABLE_+0x10>
  401d24:	0f 1f 40 00          	nopl   0x0(%rax)

0000000000401d28 <log10@plt>:
  401d28:	ff 25 b2 98 20 00    	jmpq   *0x2098b2(%rip)        # 60b5e0 <_GLOBAL_OFFSET_TABLE_+0x18>
  401d2e:	68 00 00 00 00       	pushq  $0x0
  401d33:	e9 e0 ff ff ff       	jmpq   401d18 <_init+0x18>

0000000000401d38 <XDrawString@plt>:
  401d38:	ff 25 aa 98 20 00    	jmpq   *0x2098aa(%rip)        # 60b5e8 <_GLOBAL_OFFSET_TABLE_+0x20>
  401d3e:	68 01 00 00 00       	pushq  $0x1
  401d43:	e9 d0 ff ff ff       	jmpq   401d18 <_init+0x18>

0000000000401d48 <XtWindow@plt>:
  401d48:	ff 25 a2 98 20 00    	jmpq   *0x2098a2(%rip)        # 60b5f0 <_GLOBAL_OFFSET_TABLE_+0x28>
  401d4e:	68 02 00 00 00       	pushq  $0x2
  401d53:	e9 c0 ff ff ff       	jmpq   401d18 <_init+0x18>

0000000000401d58 <printf@plt>:
  401d58:	ff 25 9a 98 20 00    	jmpq   *0x20989a(%rip)        # 60b5f8 <_GLOBAL_OFFSET_TABLE_+0x30>
  401d5e:	68 03 00 00 00       	pushq  $0x3
  401d63:	e9 b0 ff ff ff       	jmpq   401d18 <_init+0x18>

0000000000401d68 <XtName@plt>:
  401d68:	ff 25 92 98 20 00    	jmpq   *0x209892(%rip)        # 60b600 <_GLOBAL_OFFSET_TABLE_+0x38>
  401d6e:	68 04 00 00 00       	pushq  $0x4
  401d73:	e9 a0 ff ff ff       	jmpq   401d18 <_init+0x18>

0000000000401d78 <XtGetValues@plt>:
  401d78:	ff 25 8a 98 20 00    	jmpq   *0x20988a(%rip)        # 60b608 <_GLOBAL_OFFSET_TABLE_+0x40>
  401d7e:	68 05 00 00 00       	pushq  $0x5
  401d83:	e9 90 ff ff ff       	jmpq   401d18 <_init+0x18>

0000000000401d88 <memset@plt>:
  401d88:	ff 25 82 98 20 00    	jmpq   *0x209882(%rip)        # 60b610 <_GLOBAL_OFFSET_TABLE_+0x48>
  401d8e:	68 06 00 00 00       	pushq  $0x6
  401d93:	e9 80 ff ff ff       	jmpq   401d18 <_init+0x18>

0000000000401d98 <XtRealizeWidget@plt>:
  401d98:	ff 25 7a 98 20 00    	jmpq   *0x20987a(%rip)        # 60b618 <_GLOBAL_OFFSET_TABLE_+0x50>
  401d9e:	68 07 00 00 00       	pushq  $0x7
  401da3:	e9 70 ff ff ff       	jmpq   401d18 <_init+0x18>

0000000000401da8 <XtSetValues@plt>:
  401da8:	ff 25 72 98 20 00    	jmpq   *0x209872(%rip)        # 60b620 <_GLOBAL_OFFSET_TABLE_+0x58>
  401dae:	68 08 00 00 00       	pushq  $0x8
  401db3:	e9 60 ff ff ff       	jmpq   401d18 <_init+0x18>

0000000000401db8 <XtCreatePopupShell@plt>:
  401db8:	ff 25 6a 98 20 00    	jmpq   *0x20986a(%rip)        # 60b628 <_GLOBAL_OFFSET_TABLE_+0x60>
  401dbe:	68 09 00 00 00       	pushq  $0x9
  401dc3:	e9 50 ff ff ff       	jmpq   401d18 <_init+0x18>

0000000000401dc8 <XLookupString@plt>:
  401dc8:	ff 25 62 98 20 00    	jmpq   *0x209862(%rip)        # 60b630 <_GLOBAL_OFFSET_TABLE_+0x68>
  401dce:	68 0a 00 00 00       	pushq  $0xa
  401dd3:	e9 40 ff ff ff       	jmpq   401d18 <_init+0x18>

0000000000401dd8 <XtTranslateCoords@plt>:
  401dd8:	ff 25 5a 98 20 00    	jmpq   *0x20985a(%rip)        # 60b638 <_GLOBAL_OFFSET_TABLE_+0x70>
  401dde:	68 0b 00 00 00       	pushq  $0xb
  401de3:	e9 30 ff ff ff       	jmpq   401d18 <_init+0x18>

0000000000401de8 <XmuCvtStringToBitmap@plt>:
  401de8:	ff 25 52 98 20 00    	jmpq   *0x209852(%rip)        # 60b640 <_GLOBAL_OFFSET_TABLE_+0x78>
  401dee:	68 0c 00 00 00       	pushq  $0xc
  401df3:	e9 20 ff ff ff       	jmpq   401d18 <_init+0x18>

0000000000401df8 <exit@plt>:
  401df8:	ff 25 4a 98 20 00    	jmpq   *0x20984a(%rip)        # 60b648 <_GLOBAL_OFFSET_TABLE_+0x80>
  401dfe:	68 0d 00 00 00       	pushq  $0xd
  401e03:	e9 10 ff ff ff       	jmpq   401d18 <_init+0x18>

0000000000401e08 <XDisplayWidth@plt>:
  401e08:	ff 25 42 98 20 00    	jmpq   *0x209842(%rip)        # 60b650 <_GLOBAL_OFFSET_TABLE_+0x88>
  401e0e:	68 0e 00 00 00       	pushq  $0xe
  401e13:	e9 00 ff ff ff       	jmpq   401d18 <_init+0x18>

0000000000401e18 <malloc@plt>:
  401e18:	ff 25 3a 98 20 00    	jmpq   *0x20983a(%rip)        # 60b658 <_GLOBAL_OFFSET_TABLE_+0x90>
  401e1e:	68 0f 00 00 00       	pushq  $0xf
  401e23:	e9 f0 fe ff ff       	jmpq   401d18 <_init+0x18>

0000000000401e28 <__libc_start_main@plt>:
  401e28:	ff 25 32 98 20 00    	jmpq   *0x209832(%rip)        # 60b660 <_GLOBAL_OFFSET_TABLE_+0x98>
  401e2e:	68 10 00 00 00       	pushq  $0x10
  401e33:	e9 e0 fe ff ff       	jmpq   401d18 <_init+0x18>

0000000000401e38 <XSetFillStyle@plt>:
  401e38:	ff 25 2a 98 20 00    	jmpq   *0x20982a(%rip)        # 60b668 <_GLOBAL_OFFSET_TABLE_+0xa0>
  401e3e:	68 11 00 00 00       	pushq  $0x11
  401e43:	e9 d0 fe ff ff       	jmpq   401d18 <_init+0x18>

0000000000401e48 <XAllocNamedColor@plt>:
  401e48:	ff 25 22 98 20 00    	jmpq   *0x209822(%rip)        # 60b670 <_GLOBAL_OFFSET_TABLE_+0xa8>
  401e4e:	68 12 00 00 00       	pushq  $0x12
  401e53:	e9 c0 fe ff ff       	jmpq   401d18 <_init+0x18>

0000000000401e58 <XtCallCallbacks@plt>:
  401e58:	ff 25 1a 98 20 00    	jmpq   *0x20981a(%rip)        # 60b678 <_GLOBAL_OFFSET_TABLE_+0xb0>
  401e5e:	68 13 00 00 00       	pushq  $0x13
  401e63:	e9 b0 fe ff ff       	jmpq   401d18 <_init+0x18>

0000000000401e68 <cos@plt>:
  401e68:	ff 25 12 98 20 00    	jmpq   *0x209812(%rip)        # 60b680 <_GLOBAL_OFFSET_TABLE_+0xb8>
  401e6e:	68 14 00 00 00       	pushq  $0x14
  401e73:	e9 a0 fe ff ff       	jmpq   401d18 <_init+0x18>

0000000000401e78 <srandom@plt>:
  401e78:	ff 25 0a 98 20 00    	jmpq   *0x20980a(%rip)        # 60b688 <_GLOBAL_OFFSET_TABLE_+0xc0>
  401e7e:	68 15 00 00 00       	pushq  $0x15
  401e83:	e9 90 fe ff ff       	jmpq   401d18 <_init+0x18>

0000000000401e88 <XtWindowOfObject@plt>:
  401e88:	ff 25 02 98 20 00    	jmpq   *0x209802(%rip)        # 60b690 <_GLOBAL_OFFSET_TABLE_+0xc8>
  401e8e:	68 16 00 00 00       	pushq  $0x16
  401e93:	e9 80 fe ff ff       	jmpq   401d18 <_init+0x18>

0000000000401e98 <XtCreateWindow@plt>:
  401e98:	ff 25 fa 97 20 00    	jmpq   *0x2097fa(%rip)        # 60b698 <_GLOBAL_OFFSET_TABLE_+0xd0>
  401e9e:	68 17 00 00 00       	pushq  $0x17
  401ea3:	e9 70 fe ff ff       	jmpq   401d18 <_init+0x18>

0000000000401ea8 <XtDestroyApplicationContext@plt>:
  401ea8:	ff 25 f2 97 20 00    	jmpq   *0x2097f2(%rip)        # 60b6a0 <_GLOBAL_OFFSET_TABLE_+0xd8>
  401eae:	68 18 00 00 00       	pushq  $0x18
  401eb3:	e9 60 fe ff ff       	jmpq   401d18 <_init+0x18>

0000000000401eb8 <XtAddCallback@plt>:
  401eb8:	ff 25 ea 97 20 00    	jmpq   *0x2097ea(%rip)        # 60b6a8 <_GLOBAL_OFFSET_TABLE_+0xe0>
  401ebe:	68 19 00 00 00       	pushq  $0x19
  401ec3:	e9 50 fe ff ff       	jmpq   401d18 <_init+0x18>

0000000000401ec8 <XtCallCallbackList@plt>:
  401ec8:	ff 25 e2 97 20 00    	jmpq   *0x2097e2(%rip)        # 60b6b0 <_GLOBAL_OFFSET_TABLE_+0xe8>
  401ece:	68 1a 00 00 00       	pushq  $0x1a
  401ed3:	e9 40 fe ff ff       	jmpq   401d18 <_init+0x18>

0000000000401ed8 <XtRemoveTimeOut@plt>:
  401ed8:	ff 25 da 97 20 00    	jmpq   *0x2097da(%rip)        # 60b6b8 <_GLOBAL_OFFSET_TABLE_+0xf0>
  401ede:	68 1b 00 00 00       	pushq  $0x1b
  401ee3:	e9 30 fe ff ff       	jmpq   401d18 <_init+0x18>

0000000000401ee8 <XmuCreateStippledPixmap@plt>:
  401ee8:	ff 25 d2 97 20 00    	jmpq   *0x2097d2(%rip)        # 60b6c0 <_GLOBAL_OFFSET_TABLE_+0xf8>
  401eee:	68 1c 00 00 00       	pushq  $0x1c
  401ef3:	e9 20 fe ff ff       	jmpq   401d18 <_init+0x18>

0000000000401ef8 <XPeekIfEvent@plt>:
  401ef8:	ff 25 ca 97 20 00    	jmpq   *0x2097ca(%rip)        # 60b6c8 <_GLOBAL_OFFSET_TABLE_+0x100>
  401efe:	68 1d 00 00 00       	pushq  $0x1d
  401f03:	e9 10 fe ff ff       	jmpq   401d18 <_init+0x18>

0000000000401f08 <XtAppInitialize@plt>:
  401f08:	ff 25 c2 97 20 00    	jmpq   *0x2097c2(%rip)        # 60b6d0 <_GLOBAL_OFFSET_TABLE_+0x108>
  401f0e:	68 1e 00 00 00       	pushq  $0x1e
  401f13:	e9 00 fe ff ff       	jmpq   401d18 <_init+0x18>

0000000000401f18 <XCopyArea@plt>:
  401f18:	ff 25 ba 97 20 00    	jmpq   *0x2097ba(%rip)        # 60b6d8 <_GLOBAL_OFFSET_TABLE_+0x110>
  401f1e:	68 1f 00 00 00       	pushq  $0x1f
  401f23:	e9 f0 fd ff ff       	jmpq   401d18 <_init+0x18>

0000000000401f28 <strlen@plt>:
  401f28:	ff 25 b2 97 20 00    	jmpq   *0x2097b2(%rip)        # 60b6e0 <_GLOBAL_OFFSET_TABLE_+0x118>
  401f2e:	68 20 00 00 00       	pushq  $0x20
  401f33:	e9 e0 fd ff ff       	jmpq   401d18 <_init+0x18>

0000000000401f38 <XtAppMainLoop@plt>:
  401f38:	ff 25 aa 97 20 00    	jmpq   *0x2097aa(%rip)        # 60b6e8 <_GLOBAL_OFFSET_TABLE_+0x120>
  401f3e:	68 21 00 00 00       	pushq  $0x21
  401f43:	e9 d0 fd ff ff       	jmpq   401d18 <_init+0x18>

0000000000401f48 <XDrawLine@plt>:
  401f48:	ff 25 a2 97 20 00    	jmpq   *0x2097a2(%rip)        # 60b6f0 <_GLOBAL_OFFSET_TABLE_+0x128>
  401f4e:	68 22 00 00 00       	pushq  $0x22
  401f53:	e9 c0 fd ff ff       	jmpq   401d18 <_init+0x18>

0000000000401f58 <XFillArc@plt>:
  401f58:	ff 25 9a 97 20 00    	jmpq   *0x20979a(%rip)        # 60b6f8 <_GLOBAL_OFFSET_TABLE_+0x130>
  401f5e:	68 23 00 00 00       	pushq  $0x23
  401f63:	e9 b0 fd ff ff       	jmpq   401d18 <_init+0x18>

0000000000401f68 <XSetForeground@plt>:
  401f68:	ff 25 92 97 20 00    	jmpq   *0x209792(%rip)        # 60b700 <_GLOBAL_OFFSET_TABLE_+0x138>
  401f6e:	68 24 00 00 00       	pushq  $0x24
  401f73:	e9 a0 fd ff ff       	jmpq   401d18 <_init+0x18>

0000000000401f78 <XFillRectangle@plt>:
  401f78:	ff 25 8a 97 20 00    	jmpq   *0x20978a(%rip)        # 60b708 <_GLOBAL_OFFSET_TABLE_+0x140>
  401f7e:	68 25 00 00 00       	pushq  $0x25
  401f83:	e9 90 fd ff ff       	jmpq   401d18 <_init+0x18>

0000000000401f88 <XGetGeometry@plt>:
  401f88:	ff 25 82 97 20 00    	jmpq   *0x209782(%rip)        # 60b710 <_GLOBAL_OFFSET_TABLE_+0x148>
  401f8e:	68 26 00 00 00       	pushq  $0x26
  401f93:	e9 80 fd ff ff       	jmpq   401d18 <_init+0x18>

0000000000401f98 <sprintf@plt>:
  401f98:	ff 25 7a 97 20 00    	jmpq   *0x20977a(%rip)        # 60b718 <_GLOBAL_OFFSET_TABLE_+0x150>
  401f9e:	68 27 00 00 00       	pushq  $0x27
  401fa3:	e9 70 fd ff ff       	jmpq   401d18 <_init+0x18>

0000000000401fa8 <XtDestroyWidget@plt>:
  401fa8:	ff 25 72 97 20 00    	jmpq   *0x209772(%rip)        # 60b720 <_GLOBAL_OFFSET_TABLE_+0x158>
  401fae:	68 28 00 00 00       	pushq  $0x28
  401fb3:	e9 60 fd ff ff       	jmpq   401d18 <_init+0x18>

0000000000401fb8 <XtDisplay@plt>:
  401fb8:	ff 25 6a 97 20 00    	jmpq   *0x20976a(%rip)        # 60b728 <_GLOBAL_OFFSET_TABLE_+0x160>
  401fbe:	68 29 00 00 00       	pushq  $0x29
  401fc3:	e9 50 fd ff ff       	jmpq   401d18 <_init+0x18>

0000000000401fc8 <XFreeGC@plt>:
  401fc8:	ff 25 62 97 20 00    	jmpq   *0x209762(%rip)        # 60b730 <_GLOBAL_OFFSET_TABLE_+0x168>
  401fce:	68 2a 00 00 00       	pushq  $0x2a
  401fd3:	e9 40 fd ff ff       	jmpq   401d18 <_init+0x18>

0000000000401fd8 <sscanf@plt>:
  401fd8:	ff 25 5a 97 20 00    	jmpq   *0x20975a(%rip)        # 60b738 <_GLOBAL_OFFSET_TABLE_+0x170>
  401fde:	68 2b 00 00 00       	pushq  $0x2b
  401fe3:	e9 30 fd ff ff       	jmpq   401d18 <_init+0x18>

0000000000401fe8 <XDrawRectangle@plt>:
  401fe8:	ff 25 52 97 20 00    	jmpq   *0x209752(%rip)        # 60b740 <_GLOBAL_OFFSET_TABLE_+0x178>
  401fee:	68 2c 00 00 00       	pushq  $0x2c
  401ff3:	e9 20 fd ff ff       	jmpq   401d18 <_init+0x18>

0000000000401ff8 <XSetBackground@plt>:
  401ff8:	ff 25 4a 97 20 00    	jmpq   *0x20974a(%rip)        # 60b748 <_GLOBAL_OFFSET_TABLE_+0x180>
  401ffe:	68 2d 00 00 00       	pushq  $0x2d
  402003:	e9 10 fd ff ff       	jmpq   401d18 <_init+0x18>

0000000000402008 <XSetFunction@plt>:
  402008:	ff 25 42 97 20 00    	jmpq   *0x209742(%rip)        # 60b750 <_GLOBAL_OFFSET_TABLE_+0x188>
  40200e:	68 2e 00 00 00       	pushq  $0x2e
  402013:	e9 00 fd ff ff       	jmpq   401d18 <_init+0x18>

0000000000402018 <pow@plt>:
  402018:	ff 25 3a 97 20 00    	jmpq   *0x20973a(%rip)        # 60b758 <_GLOBAL_OFFSET_TABLE_+0x190>
  40201e:	68 2f 00 00 00       	pushq  $0x2f
  402023:	e9 f0 fc ff ff       	jmpq   401d18 <_init+0x18>

0000000000402028 <XRectInRegion@plt>:
  402028:	ff 25 32 97 20 00    	jmpq   *0x209732(%rip)        # 60b760 <_GLOBAL_OFFSET_TABLE_+0x198>
  40202e:	68 30 00 00 00       	pushq  $0x30
  402033:	e9 e0 fc ff ff       	jmpq   401d18 <_init+0x18>

0000000000402038 <XtAddConverter@plt>:
  402038:	ff 25 2a 97 20 00    	jmpq   *0x20972a(%rip)        # 60b768 <_GLOBAL_OFFSET_TABLE_+0x1a0>
  40203e:	68 31 00 00 00       	pushq  $0x31
  402043:	e9 d0 fc ff ff       	jmpq   401d18 <_init+0x18>

0000000000402048 <XSetLineAttributes@plt>:
  402048:	ff 25 22 97 20 00    	jmpq   *0x209722(%rip)        # 60b770 <_GLOBAL_OFFSET_TABLE_+0x1a8>
  40204e:	68 32 00 00 00       	pushq  $0x32
  402053:	e9 c0 fc ff ff       	jmpq   401d18 <_init+0x18>

0000000000402058 <XDisplayHeight@plt>:
  402058:	ff 25 1a 97 20 00    	jmpq   *0x20971a(%rip)        # 60b778 <_GLOBAL_OFFSET_TABLE_+0x1b0>
  40205e:	68 33 00 00 00       	pushq  $0x33
  402063:	e9 b0 fc ff ff       	jmpq   401d18 <_init+0x18>

0000000000402068 <XClearArea@plt>:
  402068:	ff 25 12 97 20 00    	jmpq   *0x209712(%rip)        # 60b780 <_GLOBAL_OFFSET_TABLE_+0x1b8>
  40206e:	68 34 00 00 00       	pushq  $0x34
  402073:	e9 a0 fc ff ff       	jmpq   401d18 <_init+0x18>

0000000000402078 <strcat@plt>:
  402078:	ff 25 0a 97 20 00    	jmpq   *0x20970a(%rip)        # 60b788 <_GLOBAL_OFFSET_TABLE_+0x1c0>
  40207e:	68 35 00 00 00       	pushq  $0x35
  402083:	e9 90 fc ff ff       	jmpq   401d18 <_init+0x18>

0000000000402088 <XmuCvtStringToBackingStore@plt>:
  402088:	ff 25 02 97 20 00    	jmpq   *0x209702(%rip)        # 60b790 <_GLOBAL_OFFSET_TABLE_+0x1c8>
  40208e:	68 36 00 00 00       	pushq  $0x36
  402093:	e9 80 fc ff ff       	jmpq   401d18 <_init+0x18>

0000000000402098 <XCreateGC@plt>:
  402098:	ff 25 fa 96 20 00    	jmpq   *0x2096fa(%rip)        # 60b798 <_GLOBAL_OFFSET_TABLE_+0x1d0>
  40209e:	68 37 00 00 00       	pushq  $0x37
  4020a3:	e9 70 fc ff ff       	jmpq   401d18 <_init+0x18>

00000000004020a8 <XtAppAddTimeOut@plt>:
  4020a8:	ff 25 f2 96 20 00    	jmpq   *0x2096f2(%rip)        # 60b7a0 <_GLOBAL_OFFSET_TABLE_+0x1d8>
  4020ae:	68 38 00 00 00       	pushq  $0x38
  4020b3:	e9 60 fc ff ff       	jmpq   401d18 <_init+0x18>

00000000004020b8 <XtReleaseGC@plt>:
  4020b8:	ff 25 ea 96 20 00    	jmpq   *0x2096ea(%rip)        # 60b7a8 <_GLOBAL_OFFSET_TABLE_+0x1e0>
  4020be:	68 39 00 00 00       	pushq  $0x39
  4020c3:	e9 50 fc ff ff       	jmpq   401d18 <_init+0x18>

00000000004020c8 <XFlush@plt>:
  4020c8:	ff 25 e2 96 20 00    	jmpq   *0x2096e2(%rip)        # 60b7b0 <_GLOBAL_OFFSET_TABLE_+0x1e8>
  4020ce:	68 3a 00 00 00       	pushq  $0x3a
  4020d3:	e9 40 fc ff ff       	jmpq   401d18 <_init+0x18>

00000000004020d8 <XtParent@plt>:
  4020d8:	ff 25 da 96 20 00    	jmpq   *0x2096da(%rip)        # 60b7b8 <_GLOBAL_OFFSET_TABLE_+0x1f0>
  4020de:	68 3b 00 00 00       	pushq  $0x3b
  4020e3:	e9 30 fc ff ff       	jmpq   401d18 <_init+0x18>

00000000004020e8 <XtDestroyGC@plt>:
  4020e8:	ff 25 d2 96 20 00    	jmpq   *0x2096d2(%rip)        # 60b7c0 <_GLOBAL_OFFSET_TABLE_+0x1f8>
  4020ee:	68 3c 00 00 00       	pushq  $0x3c
  4020f3:	e9 20 fc ff ff       	jmpq   401d18 <_init+0x18>

00000000004020f8 <XtWidgetToApplicationContext@plt>:
  4020f8:	ff 25 ca 96 20 00    	jmpq   *0x2096ca(%rip)        # 60b7c8 <_GLOBAL_OFFSET_TABLE_+0x200>
  4020fe:	68 3d 00 00 00       	pushq  $0x3d
  402103:	e9 10 fc ff ff       	jmpq   401d18 <_init+0x18>

0000000000402108 <XawInitializeWidgetSet@plt>:
  402108:	ff 25 c2 96 20 00    	jmpq   *0x2096c2(%rip)        # 60b7d0 <_GLOBAL_OFFSET_TABLE_+0x208>
  40210e:	68 3e 00 00 00       	pushq  $0x3e
  402113:	e9 00 fc ff ff       	jmpq   401d18 <_init+0x18>

0000000000402118 <strcpy@plt>:
  402118:	ff 25 ba 96 20 00    	jmpq   *0x2096ba(%rip)        # 60b7d8 <_GLOBAL_OFFSET_TABLE_+0x210>
  40211e:	68 3f 00 00 00       	pushq  $0x3f
  402123:	e9 f0 fb ff ff       	jmpq   401d18 <_init+0x18>

0000000000402128 <XtPopup@plt>:
  402128:	ff 25 b2 96 20 00    	jmpq   *0x2096b2(%rip)        # 60b7e0 <_GLOBAL_OFFSET_TABLE_+0x218>
  40212e:	68 40 00 00 00       	pushq  $0x40
  402133:	e9 e0 fb ff ff       	jmpq   401d18 <_init+0x18>

0000000000402138 <XtAppError@plt>:
  402138:	ff 25 aa 96 20 00    	jmpq   *0x2096aa(%rip)        # 60b7e8 <_GLOBAL_OFFSET_TABLE_+0x220>
  40213e:	68 41 00 00 00       	pushq  $0x41
  402143:	e9 d0 fb ff ff       	jmpq   401d18 <_init+0x18>

0000000000402148 <XDefineCursor@plt>:
  402148:	ff 25 a2 96 20 00    	jmpq   *0x2096a2(%rip)        # 60b7f0 <_GLOBAL_OFFSET_TABLE_+0x228>
  40214e:	68 42 00 00 00       	pushq  $0x42
  402153:	e9 c0 fb ff ff       	jmpq   401d18 <_init+0x18>

0000000000402158 <XDrawArc@plt>:
  402158:	ff 25 9a 96 20 00    	jmpq   *0x20969a(%rip)        # 60b7f8 <_GLOBAL_OFFSET_TABLE_+0x230>
  40215e:	68 43 00 00 00       	pushq  $0x43
  402163:	e9 b0 fb ff ff       	jmpq   401d18 <_init+0x18>

0000000000402168 <fclose@plt>:
  402168:	ff 25 92 96 20 00    	jmpq   *0x209692(%rip)        # 60b800 <_GLOBAL_OFFSET_TABLE_+0x238>
  40216e:	68 44 00 00 00       	pushq  $0x44
  402173:	e9 a0 fb ff ff       	jmpq   401d18 <_init+0x18>

0000000000402178 <XmuCvtStringToOrientation@plt>:
  402178:	ff 25 8a 96 20 00    	jmpq   *0x20968a(%rip)        # 60b808 <_GLOBAL_OFFSET_TABLE_+0x240>
  40217e:	68 45 00 00 00       	pushq  $0x45
  402183:	e9 90 fb ff ff       	jmpq   401d18 <_init+0x18>

0000000000402188 <random@plt>:
  402188:	ff 25 82 96 20 00    	jmpq   *0x209682(%rip)        # 60b810 <_GLOBAL_OFFSET_TABLE_+0x248>
  40218e:	68 46 00 00 00       	pushq  $0x46
  402193:	e9 80 fb ff ff       	jmpq   401d18 <_init+0x18>

0000000000402198 <XFreePixmap@plt>:
  402198:	ff 25 7a 96 20 00    	jmpq   *0x20967a(%rip)        # 60b818 <_GLOBAL_OFFSET_TABLE_+0x250>
  40219e:	68 47 00 00 00       	pushq  $0x47
  4021a3:	e9 70 fb ff ff       	jmpq   401d18 <_init+0x18>

00000000004021a8 <XtAppCreateShell@plt>:
  4021a8:	ff 25 72 96 20 00    	jmpq   *0x209672(%rip)        # 60b820 <_GLOBAL_OFFSET_TABLE_+0x258>
  4021ae:	68 48 00 00 00       	pushq  $0x48
  4021b3:	e9 60 fb ff ff       	jmpq   401d18 <_init+0x18>

00000000004021b8 <fopen64@plt>:
  4021b8:	ff 25 6a 96 20 00    	jmpq   *0x20966a(%rip)        # 60b828 <_GLOBAL_OFFSET_TABLE_+0x260>
  4021be:	68 49 00 00 00       	pushq  $0x49
  4021c3:	e9 50 fb ff ff       	jmpq   401d18 <_init+0x18>

00000000004021c8 <XtCreateManagedWidget@plt>:
  4021c8:	ff 25 62 96 20 00    	jmpq   *0x209662(%rip)        # 60b830 <_GLOBAL_OFFSET_TABLE_+0x268>
  4021ce:	68 4a 00 00 00       	pushq  $0x4a
  4021d3:	e9 40 fb ff ff       	jmpq   401d18 <_init+0x18>

00000000004021d8 <XCreatePixmap@plt>:
  4021d8:	ff 25 5a 96 20 00    	jmpq   *0x20965a(%rip)        # 60b838 <_GLOBAL_OFFSET_TABLE_+0x270>
  4021de:	68 4b 00 00 00       	pushq  $0x4b
  4021e3:	e9 30 fb ff ff       	jmpq   401d18 <_init+0x18>

00000000004021e8 <fprintf@plt>:
  4021e8:	ff 25 52 96 20 00    	jmpq   *0x209652(%rip)        # 60b840 <_GLOBAL_OFFSET_TABLE_+0x278>
  4021ee:	68 4c 00 00 00       	pushq  $0x4c
  4021f3:	e9 20 fb ff ff       	jmpq   401d18 <_init+0x18>

00000000004021f8 <XtGetGC@plt>:
  4021f8:	ff 25 4a 96 20 00    	jmpq   *0x20964a(%rip)        # 60b848 <_GLOBAL_OFFSET_TABLE_+0x280>
  4021fe:	68 4d 00 00 00       	pushq  $0x4d
  402203:	e9 10 fb ff ff       	jmpq   401d18 <_init+0x18>

0000000000402208 <_XtInherit@plt>:
  402208:	ff 25 42 96 20 00    	jmpq   *0x209642(%rip)        # 60b850 <_GLOBAL_OFFSET_TABLE_+0x288>
  40220e:	68 4e 00 00 00       	pushq  $0x4e
  402213:	e9 00 fb ff ff       	jmpq   401d18 <_init+0x18>

0000000000402218 <sqrt@plt>:
  402218:	ff 25 3a 96 20 00    	jmpq   *0x20963a(%rip)        # 60b858 <_GLOBAL_OFFSET_TABLE_+0x290>
  40221e:	68 4f 00 00 00       	pushq  $0x4f
  402223:	e9 f0 fa ff ff       	jmpq   401d18 <_init+0x18>

0000000000402228 <sin@plt>:
  402228:	ff 25 32 96 20 00    	jmpq   *0x209632(%rip)        # 60b860 <_GLOBAL_OFFSET_TABLE_+0x298>
  40222e:	68 50 00 00 00       	pushq  $0x50
  402233:	e9 e0 fa ff ff       	jmpq   401d18 <_init+0x18>

0000000000402238 <log@plt>:
  402238:	ff 25 2a 96 20 00    	jmpq   *0x20962a(%rip)        # 60b868 <_GLOBAL_OFFSET_TABLE_+0x2a0>
  40223e:	68 51 00 00 00       	pushq  $0x51
  402243:	e9 d0 fa ff ff       	jmpq   401d18 <_init+0x18>

0000000000402248 <time@plt>:
  402248:	ff 25 22 96 20 00    	jmpq   *0x209622(%rip)        # 60b870 <_GLOBAL_OFFSET_TABLE_+0x2a8>
  40224e:	68 52 00 00 00       	pushq  $0x52
  402253:	e9 c0 fa ff ff       	jmpq   401d18 <_init+0x18>

Disassembly of section .text:

0000000000402260 <_start>:
  402260:	31 ed                	xor    %ebp,%ebp
  402262:	49 89 d1             	mov    %rdx,%r9
  402265:	5e                   	pop    %rsi
  402266:	48 89 e2             	mov    %rsp,%rdx
  402269:	48 83 e4 f0          	and    $0xfffffffffffffff0,%rsp
  40226d:	50                   	push   %rax
  40226e:	54                   	push   %rsp
  40226f:	49 c7 c0 30 9b 40 00 	mov    $0x409b30,%r8
  402276:	48 c7 c1 40 9b 40 00 	mov    $0x409b40,%rcx
  40227d:	48 c7 c7 b0 4a 40 00 	mov    $0x404ab0,%rdi
  402284:	e8 9f fb ff ff       	callq  401e28 <__libc_start_main@plt>
  402289:	f4                   	hlt    
  40228a:	90                   	nop
  40228b:	90                   	nop

000000000040228c <call_gmon_start>:
  40228c:	48 83 ec 08          	sub    $0x8,%rsp
  402290:	48 8b 05 29 93 20 00 	mov    0x209329(%rip),%rax        # 60b5c0 <_DYNAMIC+0x210>
  402297:	48 85 c0             	test   %rax,%rax
  40229a:	74 02                	je     40229e <call_gmon_start+0x12>
  40229c:	ff d0                	callq  *%rax
  40229e:	48 83 c4 08          	add    $0x8,%rsp
  4022a2:	c3                   	retq   
  4022a3:	90                   	nop
  4022a4:	90                   	nop
  4022a5:	90                   	nop
  4022a6:	90                   	nop
  4022a7:	90                   	nop
  4022a8:	90                   	nop
  4022a9:	90                   	nop
  4022aa:	90                   	nop
  4022ab:	90                   	nop
  4022ac:	90                   	nop
  4022ad:	90                   	nop
  4022ae:	90                   	nop
  4022af:	90                   	nop

00000000004022b0 <__do_global_dtors_aux>:
  4022b0:	55                   	push   %rbp
  4022b1:	48 89 e5             	mov    %rsp,%rbp
  4022b4:	53                   	push   %rbx
  4022b5:	48 83 ec 08          	sub    $0x8,%rsp
  4022b9:	80 3d 90 ad 20 00 00 	cmpb   $0x0,0x20ad90(%rip)        # 60d050 <completed.6145>
  4022c0:	75 44                	jne    402306 <__do_global_dtors_aux+0x56>
  4022c2:	b8 a0 b3 60 00       	mov    $0x60b3a0,%eax
  4022c7:	48 2d 98 b3 60 00    	sub    $0x60b398,%rax
  4022cd:	48 c1 f8 03          	sar    $0x3,%rax
  4022d1:	48 8d 58 ff          	lea    -0x1(%rax),%rbx
  4022d5:	48 8b 05 6c ad 20 00 	mov    0x20ad6c(%rip),%rax        # 60d048 <dtor_idx.6147>
  4022dc:	48 39 c3             	cmp    %rax,%rbx
  4022df:	76 1e                	jbe    4022ff <__do_global_dtors_aux+0x4f>
  4022e1:	48 83 c0 01          	add    $0x1,%rax
  4022e5:	48 89 05 5c ad 20 00 	mov    %rax,0x20ad5c(%rip)        # 60d048 <dtor_idx.6147>
  4022ec:	ff 14 c5 98 b3 60 00 	callq  *0x60b398(,%rax,8)
  4022f3:	48 8b 05 4e ad 20 00 	mov    0x20ad4e(%rip),%rax        # 60d048 <dtor_idx.6147>
  4022fa:	48 39 c3             	cmp    %rax,%rbx
  4022fd:	77 e2                	ja     4022e1 <__do_global_dtors_aux+0x31>
  4022ff:	c6 05 4a ad 20 00 01 	movb   $0x1,0x20ad4a(%rip)        # 60d050 <completed.6145>
  402306:	48 83 c4 08          	add    $0x8,%rsp
  40230a:	5b                   	pop    %rbx
  40230b:	c9                   	leaveq 
  40230c:	c3                   	retq   
  40230d:	0f 1f 00             	nopl   (%rax)

0000000000402310 <frame_dummy>:
  402310:	55                   	push   %rbp
  402311:	48 83 3d 8f 90 20 00 	cmpq   $0x0,0x20908f(%rip)        # 60b3a8 <__JCR_END__>
  402318:	00 
  402319:	48 89 e5             	mov    %rsp,%rbp
  40231c:	74 16                	je     402334 <frame_dummy+0x24>
  40231e:	b8 00 00 00 00       	mov    $0x0,%eax
  402323:	48 85 c0             	test   %rax,%rax
  402326:	74 0c                	je     402334 <frame_dummy+0x24>
  402328:	bf a8 b3 60 00       	mov    $0x60b3a8,%edi
  40232d:	49 89 c3             	mov    %rax,%r11
  402330:	c9                   	leaveq 
  402331:	41 ff e3             	jmpq   *%r11
  402334:	c9                   	leaveq 
  402335:	c3                   	retq   
  402336:	90                   	nop
  402337:	90                   	nop
  402338:	90                   	nop
  402339:	90                   	nop
  40233a:	90                   	nop
  40233b:	90                   	nop
  40233c:	90                   	nop
  40233d:	90                   	nop
  40233e:	90                   	nop
  40233f:	90                   	nop

0000000000402340 <x_pos_proc>:
  402340:	f3 c3                	repz retq 
  402342:	0f 1f 80 00 00 00 00 	nopl   0x0(%rax)
  402349:	0f 1f 80 00 00 00 00 	nopl   0x0(%rax)

0000000000402350 <x_ang_proc>:
  402350:	f3 c3                	repz retq 
  402352:	0f 1f 80 00 00 00 00 	nopl   0x0(%rax)
  402359:	0f 1f 80 00 00 00 00 	nopl   0x0(%rax)

0000000000402360 <x_file_proc>:
  402360:	83 05 e5 af 20 00 01 	addl   $0x1,0x20afe5(%rip)        # 60d34c <filecounter>
  402367:	c3                   	retq   
  402368:	0f 1f 84 00 00 00 00 	nopl   0x0(%rax,%rax,1)
  40236f:	00 

0000000000402370 <x_status_proc>:
  402370:	48 83 ec 08          	sub    $0x8,%rsp
  402374:	48 8b 05 0d bb 20 00 	mov    0x20bb0d(%rip),%rax        # 60de88 <pole>
  40237b:	bf 30 9c 40 00       	mov    $0x409c30,%edi
  402380:	f2 0f 10 80 80 00 00 	movsd  0x80(%rax),%xmm0
  402387:	00 
  402388:	b8 01 00 00 00       	mov    $0x1,%eax
  40238d:	e8 c6 f9 ff ff       	callq  401d58 <printf@plt>
  402392:	48 8b 05 ef ba 20 00 	mov    0x20baef(%rip),%rax        # 60de88 <pole>
  402399:	bf 60 9d 40 00       	mov    $0x409d60,%edi
  40239e:	f2 0f 10 50 48       	movsd  0x48(%rax),%xmm2
  4023a3:	f2 0f 10 48 40       	movsd  0x40(%rax),%xmm1
  4023a8:	f2 0f 10 40 38       	movsd  0x38(%rax),%xmm0
  4023ad:	b8 03 00 00 00       	mov    $0x3,%eax
  4023b2:	e8 a1 f9 ff ff       	callq  401d58 <printf@plt>
  4023b7:	48 8b 05 ca ba 20 00 	mov    0x20baca(%rip),%rax        # 60de88 <pole>
  4023be:	bf 88 9d 40 00       	mov    $0x409d88,%edi
  4023c3:	f2 0f 10 50 60       	movsd  0x60(%rax),%xmm2
  4023c8:	f2 0f 10 48 58       	movsd  0x58(%rax),%xmm1
  4023cd:	f2 0f 10 40 50       	movsd  0x50(%rax),%xmm0
  4023d2:	b8 03 00 00 00       	mov    $0x3,%eax
  4023d7:	e8 7c f9 ff ff       	callq  401d58 <printf@plt>
  4023dc:	48 8b 05 a5 ba 20 00 	mov    0x20baa5(%rip),%rax        # 60de88 <pole>
  4023e3:	bf b0 9d 40 00       	mov    $0x409db0,%edi
  4023e8:	f2 0f 10 50 78       	movsd  0x78(%rax),%xmm2
  4023ed:	f2 0f 10 48 70       	movsd  0x70(%rax),%xmm1
  4023f2:	f2 0f 10 40 68       	movsd  0x68(%rax),%xmm0
  4023f7:	b8 03 00 00 00       	mov    $0x3,%eax
  4023fc:	e8 57 f9 ff ff       	callq  401d58 <printf@plt>
  402401:	48 8b 05 80 ba 20 00 	mov    0x20ba80(%rip),%rax        # 60de88 <pole>
  402408:	bf d8 9d 40 00       	mov    $0x409dd8,%edi
  40240d:	f2 0f 10 48 10       	movsd  0x10(%rax),%xmm1
  402412:	f2 0f 10 40 08       	movsd  0x8(%rax),%xmm0
  402417:	b8 02 00 00 00       	mov    $0x2,%eax
  40241c:	e8 37 f9 ff ff       	callq  401d58 <printf@plt>
  402421:	48 8b 05 60 ba 20 00 	mov    0x20ba60(%rip),%rax        # 60de88 <pole>
  402428:	bf 00 9e 40 00       	mov    $0x409e00,%edi
  40242d:	f2 0f 10 48 20       	movsd  0x20(%rax),%xmm1
  402432:	f2 0f 10 40 18       	movsd  0x18(%rax),%xmm0
  402437:	b8 02 00 00 00       	mov    $0x2,%eax
  40243c:	e8 17 f9 ff ff       	callq  401d58 <printf@plt>
  402441:	48 8b 05 40 ba 20 00 	mov    0x20ba40(%rip),%rax        # 60de88 <pole>
  402448:	bf 28 9e 40 00       	mov    $0x409e28,%edi
  40244d:	f2 0f 10 48 30       	movsd  0x30(%rax),%xmm1
  402452:	f2 0f 10 40 28       	movsd  0x28(%rax),%xmm0
  402457:	b8 02 00 00 00       	mov    $0x2,%eax
  40245c:	48 83 c4 08          	add    $0x8,%rsp
  402460:	e9 f3 f8 ff ff       	jmpq   401d58 <printf@plt>
  402465:	0f 1f 44 00 00       	nopl   0x0(%rax,%rax,1)
  40246a:	66 0f 1f 44 00 00    	nopw   0x0(%rax,%rax,1)

0000000000402470 <circle>:
  402470:	48 83 ec 18          	sub    $0x18,%rsp
  402474:	85 c9                	test   %ecx,%ecx
  402476:	75 48                	jne    4024c0 <circle+0x50>
  402478:	29 d7                	sub    %edx,%edi
  40247a:	41 89 f0             	mov    %esi,%r8d
  40247d:	44 8d 0c 12          	lea    (%rdx,%rdx,1),%r9d
  402481:	41 29 d0             	sub    %edx,%r8d
  402484:	89 f9                	mov    %edi,%ecx
  402486:	48 8b 15 2b ba 20 00 	mov    0x20ba2b(%rip),%rdx        # 60deb8 <gc>
  40248d:	48 8b 35 ec b9 20 00 	mov    0x20b9ec(%rip),%rsi        # 60de80 <window>
  402494:	48 8b 3d c5 b9 20 00 	mov    0x20b9c5(%rip),%rdi        # 60de60 <display>
  40249b:	c7 44 24 10 00 5a 00 	movl   $0x5a00,0x10(%rsp)
  4024a2:	00 
  4024a3:	c7 44 24 08 00 00 00 	movl   $0x0,0x8(%rsp)
  4024aa:	00 
  4024ab:	44 89 0c 24          	mov    %r9d,(%rsp)
  4024af:	e8 a4 fc ff ff       	callq  402158 <XDrawArc@plt>
  4024b4:	48 83 c4 18          	add    $0x18,%rsp
  4024b8:	c3                   	retq   
  4024b9:	0f 1f 80 00 00 00 00 	nopl   0x0(%rax)
  4024c0:	29 d7                	sub    %edx,%edi
  4024c2:	41 89 f0             	mov    %esi,%r8d
  4024c5:	44 8d 0c 12          	lea    (%rdx,%rdx,1),%r9d
  4024c9:	41 29 d0             	sub    %edx,%r8d
  4024cc:	89 f9                	mov    %edi,%ecx
  4024ce:	48 8b 15 e3 b9 20 00 	mov    0x20b9e3(%rip),%rdx        # 60deb8 <gc>
  4024d5:	48 8b 35 a4 b9 20 00 	mov    0x20b9a4(%rip),%rsi        # 60de80 <window>
  4024dc:	48 8b 3d 7d b9 20 00 	mov    0x20b97d(%rip),%rdi        # 60de60 <display>
  4024e3:	c7 44 24 10 00 5a 00 	movl   $0x5a00,0x10(%rsp)
  4024ea:	00 
  4024eb:	c7 44 24 08 00 00 00 	movl   $0x0,0x8(%rsp)
  4024f2:	00 
  4024f3:	44 89 0c 24          	mov    %r9d,(%rsp)
  4024f7:	e8 5c fa ff ff       	callq  401f58 <XFillArc@plt>
  4024fc:	48 83 c4 18          	add    $0x18,%rsp
  402500:	c3                   	retq   
  402501:	0f 1f 80 00 00 00 00 	nopl   0x0(%rax)
  402508:	0f 1f 84 00 00 00 00 	nopl   0x0(%rax,%rax,1)
  40250f:	00 

0000000000402510 <draw_pole>:
  402510:	41 57                	push   %r15
  402512:	41 56                	push   %r14
  402514:	41 55                	push   %r13
  402516:	41 54                	push   %r12
  402518:	55                   	push   %rbp
  402519:	53                   	push   %rbx
  40251a:	48 81 ec 98 01 00 00 	sub    $0x198,%rsp
  402521:	48 8b 15 60 b9 20 00 	mov    0x20b960(%rip),%rdx        # 60de88 <pole>
  402528:	48 89 7c 24 18       	mov    %rdi,0x18(%rsp)
  40252d:	48 8d 5c 24 40       	lea    0x40(%rsp),%rbx
  402532:	dd 42 08             	fldl   0x8(%rdx)
  402535:	49 89 dc             	mov    %rbx,%r12
  402538:	49 81 c4 00 01 00 00 	add    $0x100,%r12
  40253f:	dd 5c 24 20          	fstpl  0x20(%rsp)
  402543:	dd 42 10             	fldl   0x10(%rdx)
  402546:	dd 5c 24 28          	fstpl  0x28(%rsp)
  40254a:	48 8b 42 38          	mov    0x38(%rdx),%rax
  40254e:	48 89 84 24 60 01 00 	mov    %rax,0x160(%rsp)
  402555:	00 
  402556:	48 8b 42 40          	mov    0x40(%rdx),%rax
  40255a:	48 89 84 24 68 01 00 	mov    %rax,0x168(%rsp)
  402561:	00 
  402562:	48 8b 42 48          	mov    0x48(%rdx),%rax
  402566:	48 89 84 24 70 01 00 	mov    %rax,0x170(%rsp)
  40256d:	00 
  40256e:	48 b8 00 00 00 00 00 	movabs $0x3ff0000000000000,%rax
  402575:	00 f0 3f 
  402578:	48 89 84 24 78 01 00 	mov    %rax,0x178(%rsp)
  40257f:	00 
  402580:	48 8d bc 24 60 01 00 	lea    0x160(%rsp),%rdi
  402587:	00 
  402588:	48 89 de             	mov    %rbx,%rsi
  40258b:	48 83 c3 20          	add    $0x20,%rbx
  40258f:	e8 cc 33 00 00       	callq  405960 <P_copy>
  402594:	4c 39 e3             	cmp    %r12,%rbx
  402597:	75 e7                	jne    402580 <draw_pole+0x70>
  402599:	f2 0f 10 05 af 78 00 	movsd  0x78af(%rip),%xmm0        # 409e50 <__dso_handle+0x228>
  4025a0:	00 
  4025a1:	48 8d b4 24 40 01 00 	lea    0x140(%rsp),%rsi
  4025a8:	00 
  4025a9:	31 ff                	xor    %edi,%edi
  4025ab:	4c 8d 64 24 40       	lea    0x40(%rsp),%r12
  4025b0:	48 8d 6c 24 40       	lea    0x40(%rsp),%rbp
  4025b5:	e8 66 34 00 00       	callq  405a20 <Bas_vect>
  4025ba:	48 8d 54 24 40       	lea    0x40(%rsp),%rdx
  4025bf:	48 8d b4 24 40 01 00 	lea    0x140(%rsp),%rsi
  4025c6:	00 
  4025c7:	49 83 c4 20          	add    $0x20,%r12
  4025cb:	48 81 c5 a0 00 00 00 	add    $0xa0,%rbp
  4025d2:	48 8d 5c 24 40       	lea    0x40(%rsp),%rbx
  4025d7:	4c 8d 6c 24 40       	lea    0x40(%rsp),%r13
  4025dc:	48 89 d7             	mov    %rdx,%rdi
  4025df:	4c 8d 7c 24 40       	lea    0x40(%rsp),%r15
  4025e4:	4c 8d 74 24 40       	lea    0x40(%rsp),%r14
  4025e9:	e8 32 33 00 00       	callq  405920 <P_add>
  4025ee:	48 8d b4 24 40 01 00 	lea    0x140(%rsp),%rsi
  4025f5:	00 
  4025f6:	4c 89 e2             	mov    %r12,%rdx
  4025f9:	4c 89 e7             	mov    %r12,%rdi
  4025fc:	48 83 c3 40          	add    $0x40,%rbx
  402600:	49 83 c5 60          	add    $0x60,%r13
  402604:	49 81 c7 c0 00 00 00 	add    $0xc0,%r15
  40260b:	e8 10 33 00 00       	callq  405920 <P_add>
  402610:	48 8d 44 24 40       	lea    0x40(%rsp),%rax
  402615:	48 8d b4 24 40 01 00 	lea    0x140(%rsp),%rsi
  40261c:	00 
  40261d:	49 81 c6 e0 00 00 00 	add    $0xe0,%r14
  402624:	48 83 e8 80          	sub    $0xffffffffffffff80,%rax
  402628:	48 89 c2             	mov    %rax,%rdx
  40262b:	48 89 c7             	mov    %rax,%rdi
  40262e:	48 89 44 24 30       	mov    %rax,0x30(%rsp)
  402633:	e8 e8 32 00 00       	callq  405920 <P_add>
  402638:	48 8d b4 24 40 01 00 	lea    0x140(%rsp),%rsi
  40263f:	00 
  402640:	48 89 ea             	mov    %rbp,%rdx
  402643:	48 89 ef             	mov    %rbp,%rdi
  402646:	e8 d5 32 00 00       	callq  405920 <P_add>
  40264b:	48 8d b4 24 40 01 00 	lea    0x140(%rsp),%rsi
  402652:	00 
  402653:	48 89 da             	mov    %rbx,%rdx
  402656:	48 89 df             	mov    %rbx,%rdi
  402659:	e8 e2 32 00 00       	callq  405940 <P_sub>
  40265e:	48 8d b4 24 40 01 00 	lea    0x140(%rsp),%rsi
  402665:	00 
  402666:	4c 89 ea             	mov    %r13,%rdx
  402669:	4c 89 ef             	mov    %r13,%rdi
  40266c:	e8 cf 32 00 00       	callq  405940 <P_sub>
  402671:	48 8d b4 24 40 01 00 	lea    0x140(%rsp),%rsi
  402678:	00 
  402679:	4c 89 fa             	mov    %r15,%rdx
  40267c:	4c 89 ff             	mov    %r15,%rdi
  40267f:	e8 bc 32 00 00       	callq  405940 <P_sub>
  402684:	48 8d b4 24 40 01 00 	lea    0x140(%rsp),%rsi
  40268b:	00 
  40268c:	4c 89 f2             	mov    %r14,%rdx
  40268f:	4c 89 f7             	mov    %r14,%rdi
  402692:	e8 a9 32 00 00       	callq  405940 <P_sub>
  402697:	f2 0f 10 05 b1 77 00 	movsd  0x77b1(%rip),%xmm0        # 409e50 <__dso_handle+0x228>
  40269e:	00 
  40269f:	48 8d b4 24 40 01 00 	lea    0x140(%rsp),%rsi
  4026a6:	00 
  4026a7:	bf 01 00 00 00       	mov    $0x1,%edi
  4026ac:	e8 6f 33 00 00       	callq  405a20 <Bas_vect>
  4026b1:	48 8d b4 24 40 01 00 	lea    0x140(%rsp),%rsi
  4026b8:	00 
  4026b9:	4c 89 e2             	mov    %r12,%rdx
  4026bc:	4c 89 e7             	mov    %r12,%rdi
  4026bf:	41 bc d3 4d 62 10    	mov    $0x10624dd3,%r12d
  4026c5:	e8 56 32 00 00       	callq  405920 <P_add>
  4026ca:	48 8d b4 24 40 01 00 	lea    0x140(%rsp),%rsi
  4026d1:	00 
  4026d2:	48 89 da             	mov    %rbx,%rdx
  4026d5:	48 89 df             	mov    %rbx,%rdi
  4026d8:	e8 43 32 00 00       	callq  405920 <P_add>
  4026dd:	48 8d b4 24 40 01 00 	lea    0x140(%rsp),%rsi
  4026e4:	00 
  4026e5:	48 89 ea             	mov    %rbp,%rdx
  4026e8:	48 89 ef             	mov    %rbp,%rdi
  4026eb:	e8 30 32 00 00       	callq  405920 <P_add>
  4026f0:	48 8d b4 24 40 01 00 	lea    0x140(%rsp),%rsi
  4026f7:	00 
  4026f8:	4c 89 fa             	mov    %r15,%rdx
  4026fb:	4c 89 ff             	mov    %r15,%rdi
  4026fe:	e8 1d 32 00 00       	callq  405920 <P_add>
  402703:	48 8d 54 24 40       	lea    0x40(%rsp),%rdx
  402708:	48 8d b4 24 40 01 00 	lea    0x140(%rsp),%rsi
  40270f:	00 
  402710:	48 89 d7             	mov    %rdx,%rdi
  402713:	e8 28 32 00 00       	callq  405940 <P_sub>
  402718:	48 8d b4 24 40 01 00 	lea    0x140(%rsp),%rsi
  40271f:	00 
  402720:	4c 89 ea             	mov    %r13,%rdx
  402723:	4c 89 ef             	mov    %r13,%rdi
  402726:	e8 15 32 00 00       	callq  405940 <P_sub>
  40272b:	48 8b 54 24 30       	mov    0x30(%rsp),%rdx
  402730:	48 8d b4 24 40 01 00 	lea    0x140(%rsp),%rsi
  402737:	00 
  402738:	48 89 d7             	mov    %rdx,%rdi
  40273b:	e8 00 32 00 00       	callq  405940 <P_sub>
  402740:	48 8d b4 24 40 01 00 	lea    0x140(%rsp),%rsi
  402747:	00 
  402748:	4c 89 f2             	mov    %r14,%rdx
  40274b:	4c 89 f7             	mov    %r14,%rdi
  40274e:	e8 ed 31 00 00       	callq  405940 <P_sub>
  402753:	f2 0f 10 05 f5 76 00 	movsd  0x76f5(%rip),%xmm0        # 409e50 <__dso_handle+0x228>
  40275a:	00 
  40275b:	48 8d b4 24 40 01 00 	lea    0x140(%rsp),%rsi
  402762:	00 
  402763:	bf 02 00 00 00       	mov    $0x2,%edi
  402768:	e8 b3 32 00 00       	callq  405a20 <Bas_vect>
  40276d:	48 8b 54 24 30       	mov    0x30(%rsp),%rdx
  402772:	48 8d b4 24 40 01 00 	lea    0x140(%rsp),%rsi
  402779:	00 
  40277a:	48 89 d7             	mov    %rdx,%rdi
  40277d:	e8 be 31 00 00       	callq  405940 <P_sub>
  402782:	48 8d b4 24 40 01 00 	lea    0x140(%rsp),%rsi
  402789:	00 
  40278a:	48 89 ea             	mov    %rbp,%rdx
  40278d:	48 89 ef             	mov    %rbp,%rdi
  402790:	e8 ab 31 00 00       	callq  405940 <P_sub>
  402795:	48 8d b4 24 40 01 00 	lea    0x140(%rsp),%rsi
  40279c:	00 
  40279d:	4c 89 fa             	mov    %r15,%rdx
  4027a0:	4c 89 ff             	mov    %r15,%rdi
  4027a3:	e8 98 31 00 00       	callq  405940 <P_sub>
  4027a8:	48 8d b4 24 40 01 00 	lea    0x140(%rsp),%rsi
  4027af:	00 
  4027b0:	4c 89 f2             	mov    %r14,%rdx
  4027b3:	4c 89 f7             	mov    %r14,%rdi
  4027b6:	e8 85 31 00 00       	callq  405940 <P_sub>
  4027bb:	f2 0f 10 44 24 20    	movsd  0x20(%rsp),%xmm0
  4027c1:	e8 62 fa ff ff       	callq  402228 <sin@plt>
  4027c6:	f2 0f 59 05 8a 76 00 	mulsd  0x768a(%rip),%xmm0        # 409e58 <__dso_handle+0x230>
  4027cd:	00 
  4027ce:	f2 0f 11 44 24 38    	movsd  %xmm0,0x38(%rsp)
  4027d4:	f2 0f 10 44 24 28    	movsd  0x28(%rsp),%xmm0
  4027da:	e8 49 fa ff ff       	callq  402228 <sin@plt>
  4027df:	f2 0f 59 44 24 38    	mulsd  0x38(%rsp),%xmm0
  4027e5:	f2 0f 58 84 24 60 01 	addsd  0x160(%rsp),%xmm0
  4027ec:	00 00 
  4027ee:	f2 0f 11 84 24 40 01 	movsd  %xmm0,0x140(%rsp)
  4027f5:	00 00 
  4027f7:	f2 0f 10 44 24 20    	movsd  0x20(%rsp),%xmm0
  4027fd:	e8 66 f6 ff ff       	callq  401e68 <cos@plt>
  402802:	f2 0f 59 05 56 76 00 	mulsd  0x7656(%rip),%xmm0        # 409e60 <__dso_handle+0x238>
  402809:	00 
  40280a:	31 ed                	xor    %ebp,%ebp
  40280c:	45 31 ed             	xor    %r13d,%r13d
  40280f:	f2 0f 58 84 24 68 01 	addsd  0x168(%rsp),%xmm0
  402816:	00 00 
  402818:	f2 0f 11 84 24 48 01 	movsd  %xmm0,0x148(%rsp)
  40281f:	00 00 
  402821:	f2 0f 10 44 24 28    	movsd  0x28(%rsp),%xmm0
  402827:	e8 3c f6 ff ff       	callq  401e68 <cos@plt>
  40282c:	f2 0f 59 44 24 38    	mulsd  0x38(%rsp),%xmm0
  402832:	48 8b 35 7f b6 20 00 	mov    0x20b67f(%rip),%rsi        # 60deb8 <gc>
  402839:	41 b9 01 00 00 00    	mov    $0x1,%r9d
  40283f:	48 8b 3d 1a b6 20 00 	mov    0x20b61a(%rip),%rdi        # 60de60 <display>
  402846:	41 b8 01 00 00 00    	mov    $0x1,%r8d
  40284c:	31 c9                	xor    %ecx,%ecx
  40284e:	ba 03 00 00 00       	mov    $0x3,%edx
  402853:	f2 0f 11 44 24 38    	movsd  %xmm0,0x38(%rsp)
  402859:	f2 0f 58 84 24 70 01 	addsd  0x170(%rsp),%xmm0
  402860:	00 00 
  402862:	f2 0f 11 84 24 50 01 	movsd  %xmm0,0x150(%rsp)
  402869:	00 00 
  40286b:	e8 d8 f7 ff ff       	callq  402048 <XSetLineAttributes@plt>
  402870:	48 8b 15 89 b5 20 00 	mov    0x20b589(%rip),%rdx        # 60de00 <background>
  402877:	48 8b 35 3a b6 20 00 	mov    0x20b63a(%rip),%rsi        # 60deb8 <gc>
  40287e:	48 8b 3d db b5 20 00 	mov    0x20b5db(%rip),%rdi        # 60de60 <display>
  402885:	e8 de f6 ff ff       	callq  401f68 <XSetForeground@plt>
  40288a:	66 0f 1f 44 00 00    	nopw   0x0(%rax,%rax,1)
  402890:	83 c5 01             	add    $0x1,%ebp
  402893:	8b 05 0b 90 20 00    	mov    0x20900b(%rip),%eax        # 60b8a4 <height>
  402899:	89 eb                	mov    %ebp,%ebx
  40289b:	83 e3 03             	and    $0x3,%ebx
  40289e:	4c 63 d3             	movslq %ebx,%r10
  4028a1:	41 89 c0             	mov    %eax,%r8d
  4028a4:	49 c1 e2 05          	shl    $0x5,%r10
  4028a8:	41 c1 e8 1f          	shr    $0x1f,%r8d
  4028ac:	f2 41 0f 10 82 e0 d0 	movsd  0x60d0e0(%r10),%xmm0
  4028b3:	60 00 
  4028b5:	41 01 c0             	add    %eax,%r8d
  4028b8:	8b 05 e2 8f 20 00    	mov    0x208fe2(%rip),%eax        # 60b8a0 <width>
  4028be:	41 d1 f8             	sar    %r8d
  4028c1:	f2 0f 59 05 9f 75 00 	mulsd  0x759f(%rip),%xmm0        # 409e68 <__dso_handle+0x240>
  4028c8:	00 
  4028c9:	41 89 c1             	mov    %eax,%r9d
  4028cc:	41 c1 e9 1f          	shr    $0x1f,%r9d
  4028d0:	41 01 c1             	add    %eax,%r9d
  4028d3:	41 d1 f9             	sar    %r9d
  4028d6:	f2 0f 58 05 7a 75 00 	addsd  0x757a(%rip),%xmm0        # 409e58 <__dso_handle+0x230>
  4028dd:	00 
  4028de:	f2 0f 2c c8          	cvttsd2si %xmm0,%ecx
  4028e2:	f2 41 0f 10 85 f0 d0 	movsd  0x60d0f0(%r13),%xmm0
  4028e9:	60 00 
  4028eb:	f2 0f 59 05 75 75 00 	mulsd  0x7575(%rip),%xmm0        # 409e68 <__dso_handle+0x240>
  4028f2:	00 
  4028f3:	f2 0f 58 05 5d 75 00 	addsd  0x755d(%rip),%xmm0        # 409e58 <__dso_handle+0x230>
  4028fa:	00 
  4028fb:	89 c8                	mov    %ecx,%eax
  4028fd:	c1 f9 1f             	sar    $0x1f,%ecx
  402900:	41 f7 ec             	imul   %r12d
  402903:	89 d7                	mov    %edx,%edi
  402905:	c1 ff 06             	sar    $0x6,%edi
  402908:	29 cf                	sub    %ecx,%edi
  40290a:	f2 0f 2c c8          	cvttsd2si %xmm0,%ecx
  40290e:	f2 41 0f 10 85 e0 d0 	movsd  0x60d0e0(%r13),%xmm0
  402915:	60 00 
  402917:	f2 0f 59 05 49 75 00 	mulsd  0x7549(%rip),%xmm0        # 409e68 <__dso_handle+0x240>
  40291e:	00 
  40291f:	f2 0f 58 05 31 75 00 	addsd  0x7531(%rip),%xmm0        # 409e58 <__dso_handle+0x230>
  402926:	00 
  402927:	89 c8                	mov    %ecx,%eax
  402929:	c1 f9 1f             	sar    $0x1f,%ecx
  40292c:	41 f7 ec             	imul   %r12d
  40292f:	89 d6                	mov    %edx,%esi
  402931:	c1 fe 06             	sar    $0x6,%esi
  402934:	29 ce                	sub    %ecx,%esi
  402936:	f2 0f 2c c8          	cvttsd2si %xmm0,%ecx
  40293a:	f2 41 0f 10 82 f0 d0 	movsd  0x60d0f0(%r10),%xmm0
  402941:	60 00 
  402943:	f2 0f 59 05 1d 75 00 	mulsd  0x751d(%rip),%xmm0        # 409e68 <__dso_handle+0x240>
  40294a:	00 
  40294b:	f2 0f 58 05 05 75 00 	addsd  0x7505(%rip),%xmm0        # 409e58 <__dso_handle+0x230>
  402952:	00 
  402953:	89 c8                	mov    %ecx,%eax
  402955:	c1 f9 1f             	sar    $0x1f,%ecx
  402958:	41 f7 ec             	imul   %r12d
  40295b:	f2 44 0f 2c d0       	cvttsd2si %xmm0,%r10d
  402960:	c1 fa 06             	sar    $0x6,%edx
  402963:	29 ca                	sub    %ecx,%edx
  402965:	42 8d 0c 0a          	lea    (%rdx,%r9,1),%ecx
  402969:	46 8d 0c 0f          	lea    (%rdi,%r9,1),%r9d
  40296d:	48 8b 3d ec b4 20 00 	mov    0x20b4ec(%rip),%rdi        # 60de60 <display>
  402974:	44 89 d0             	mov    %r10d,%eax
  402977:	41 c1 fa 1f          	sar    $0x1f,%r10d
  40297b:	41 f7 ec             	imul   %r12d
  40297e:	44 89 c0             	mov    %r8d,%eax
  402981:	41 29 f0             	sub    %esi,%r8d
  402984:	48 8b 35 f5 b4 20 00 	mov    0x20b4f5(%rip),%rsi        # 60de80 <window>
  40298b:	c1 fa 06             	sar    $0x6,%edx
  40298e:	44 29 d2             	sub    %r10d,%edx
  402991:	29 d0                	sub    %edx,%eax
  402993:	48 8b 15 1e b5 20 00 	mov    0x20b51e(%rip),%rdx        # 60deb8 <gc>
  40299a:	89 04 24             	mov    %eax,(%rsp)
  40299d:	e8 a6 f5 ff ff       	callq  401f48 <XDrawLine@plt>
  4029a2:	8b 05 fc 8e 20 00    	mov    0x208efc(%rip),%eax        # 60b8a4 <height>
  4029a8:	41 89 c0             	mov    %eax,%r8d
  4029ab:	41 c1 e8 1f          	shr    $0x1f,%r8d
  4029af:	41 01 c0             	add    %eax,%r8d
  4029b2:	8b 05 e8 8e 20 00    	mov    0x208ee8(%rip),%eax        # 60b8a0 <width>
  4029b8:	41 d1 f8             	sar    %r8d
  4029bb:	41 89 c1             	mov    %eax,%r9d
  4029be:	41 c1 e9 1f          	shr    $0x1f,%r9d
  4029c2:	41 01 c1             	add    %eax,%r9d
  4029c5:	41 d1 f9             	sar    %r9d
  4029c8:	83 c3 04             	add    $0x4,%ebx
  4029cb:	48 c1 e3 05          	shl    $0x5,%rbx
  4029cf:	f2 0f 10 83 e0 d0 60 	movsd  0x60d0e0(%rbx),%xmm0
  4029d6:	00 
  4029d7:	f2 0f 59 05 89 74 00 	mulsd  0x7489(%rip),%xmm0        # 409e68 <__dso_handle+0x240>
  4029de:	00 
  4029df:	f2 0f 58 05 71 74 00 	addsd  0x7471(%rip),%xmm0        # 409e58 <__dso_handle+0x230>
  4029e6:	00 
  4029e7:	f2 0f 2c c8          	cvttsd2si %xmm0,%ecx
  4029eb:	f2 41 0f 10 85 70 d1 	movsd  0x60d170(%r13),%xmm0
  4029f2:	60 00 
  4029f4:	f2 0f 59 05 6c 74 00 	mulsd  0x746c(%rip),%xmm0        # 409e68 <__dso_handle+0x240>
  4029fb:	00 
  4029fc:	f2 0f 58 05 54 74 00 	addsd  0x7454(%rip),%xmm0        # 409e58 <__dso_handle+0x230>
  402a03:	00 
  402a04:	89 c8                	mov    %ecx,%eax
  402a06:	c1 f9 1f             	sar    $0x1f,%ecx
  402a09:	41 f7 ec             	imul   %r12d
  402a0c:	89 d7                	mov    %edx,%edi
  402a0e:	c1 ff 06             	sar    $0x6,%edi
  402a11:	29 cf                	sub    %ecx,%edi
  402a13:	f2 0f 2c c8          	cvttsd2si %xmm0,%ecx
  402a17:	f2 41 0f 10 85 60 d1 	movsd  0x60d160(%r13),%xmm0
  402a1e:	60 00 
  402a20:	f2 0f 59 05 40 74 00 	mulsd  0x7440(%rip),%xmm0        # 409e68 <__dso_handle+0x240>
  402a27:	00 
  402a28:	f2 0f 58 05 28 74 00 	addsd  0x7428(%rip),%xmm0        # 409e58 <__dso_handle+0x230>
  402a2f:	00 
  402a30:	89 c8                	mov    %ecx,%eax
  402a32:	c1 f9 1f             	sar    $0x1f,%ecx
  402a35:	41 f7 ec             	imul   %r12d
  402a38:	89 d6                	mov    %edx,%esi
  402a3a:	c1 fe 06             	sar    $0x6,%esi
  402a3d:	29 ce                	sub    %ecx,%esi
  402a3f:	f2 0f 2c c8          	cvttsd2si %xmm0,%ecx
  402a43:	f2 0f 10 83 f0 d0 60 	movsd  0x60d0f0(%rbx),%xmm0
  402a4a:	00 
  402a4b:	f2 0f 59 05 15 74 00 	mulsd  0x7415(%rip),%xmm0        # 409e68 <__dso_handle+0x240>
  402a52:	00 
  402a53:	f2 0f 58 05 fd 73 00 	addsd  0x73fd(%rip),%xmm0        # 409e58 <__dso_handle+0x230>
  402a5a:	00 
  402a5b:	89 c8                	mov    %ecx,%eax
  402a5d:	c1 f9 1f             	sar    $0x1f,%ecx
  402a60:	41 f7 ec             	imul   %r12d
  402a63:	f2 44 0f 2c d0       	cvttsd2si %xmm0,%r10d
  402a68:	c1 fa 06             	sar    $0x6,%edx
  402a6b:	29 ca                	sub    %ecx,%edx
  402a6d:	42 8d 0c 0a          	lea    (%rdx,%r9,1),%ecx
  402a71:	46 8d 0c 0f          	lea    (%rdi,%r9,1),%r9d
  402a75:	48 8b 3d e4 b3 20 00 	mov    0x20b3e4(%rip),%rdi        # 60de60 <display>
  402a7c:	44 89 d0             	mov    %r10d,%eax
  402a7f:	41 c1 fa 1f          	sar    $0x1f,%r10d
  402a83:	41 f7 ec             	imul   %r12d
  402a86:	44 89 c0             	mov    %r8d,%eax
  402a89:	41 29 f0             	sub    %esi,%r8d
  402a8c:	48 8b 35 ed b3 20 00 	mov    0x20b3ed(%rip),%rsi        # 60de80 <window>
  402a93:	c1 fa 06             	sar    $0x6,%edx
  402a96:	44 29 d2             	sub    %r10d,%edx
  402a99:	29 d0                	sub    %edx,%eax
  402a9b:	48 8b 15 16 b4 20 00 	mov    0x20b416(%rip),%rdx        # 60deb8 <gc>
  402aa2:	89 04 24             	mov    %eax,(%rsp)
  402aa5:	e8 9e f4 ff ff       	callq  401f48 <XDrawLine@plt>
  402aaa:	f2 41 0f 10 85 60 d1 	movsd  0x60d160(%r13),%xmm0
  402ab1:	60 00 
  402ab3:	8b 05 eb 8d 20 00    	mov    0x208deb(%rip),%eax        # 60b8a4 <height>
  402ab9:	f2 0f 59 05 a7 73 00 	mulsd  0x73a7(%rip),%xmm0        # 409e68 <__dso_handle+0x240>
  402ac0:	00 
  402ac1:	41 89 c0             	mov    %eax,%r8d
  402ac4:	41 c1 e8 1f          	shr    $0x1f,%r8d
  402ac8:	41 01 c0             	add    %eax,%r8d
  402acb:	8b 05 cf 8d 20 00    	mov    0x208dcf(%rip),%eax        # 60b8a0 <width>
  402ad1:	41 d1 f8             	sar    %r8d
  402ad4:	f2 0f 58 05 7c 73 00 	addsd  0x737c(%rip),%xmm0        # 409e58 <__dso_handle+0x230>
  402adb:	00 
  402adc:	41 89 c1             	mov    %eax,%r9d
  402adf:	41 c1 e9 1f          	shr    $0x1f,%r9d
  402ae3:	41 01 c1             	add    %eax,%r9d
  402ae6:	41 d1 f9             	sar    %r9d
  402ae9:	f2 0f 2c c8          	cvttsd2si %xmm0,%ecx
  402aed:	f2 41 0f 10 85 f0 d0 	movsd  0x60d0f0(%r13),%xmm0
  402af4:	60 00 
  402af6:	f2 0f 59 05 6a 73 00 	mulsd  0x736a(%rip),%xmm0        # 409e68 <__dso_handle+0x240>
  402afd:	00 
  402afe:	f2 0f 58 05 52 73 00 	addsd  0x7352(%rip),%xmm0        # 409e58 <__dso_handle+0x230>
  402b05:	00 
  402b06:	89 c8                	mov    %ecx,%eax
  402b08:	c1 f9 1f             	sar    $0x1f,%ecx
  402b0b:	41 f7 ec             	imul   %r12d
  402b0e:	89 d7                	mov    %edx,%edi
  402b10:	c1 ff 06             	sar    $0x6,%edi
  402b13:	29 cf                	sub    %ecx,%edi
  402b15:	f2 0f 2c c8          	cvttsd2si %xmm0,%ecx
  402b19:	f2 41 0f 10 85 e0 d0 	movsd  0x60d0e0(%r13),%xmm0
  402b20:	60 00 
  402b22:	f2 0f 59 05 3e 73 00 	mulsd  0x733e(%rip),%xmm0        # 409e68 <__dso_handle+0x240>
  402b29:	00 
  402b2a:	f2 0f 58 05 26 73 00 	addsd  0x7326(%rip),%xmm0        # 409e58 <__dso_handle+0x230>
  402b31:	00 
  402b32:	89 c8                	mov    %ecx,%eax
  402b34:	41 f7 ec             	imul   %r12d
  402b37:	89 d6                	mov    %edx,%esi
  402b39:	c1 fe 06             	sar    $0x6,%esi
  402b3c:	c1 f9 1f             	sar    $0x1f,%ecx
  402b3f:	29 ce                	sub    %ecx,%esi
  402b41:	f2 0f 2c c8          	cvttsd2si %xmm0,%ecx
  402b45:	f2 41 0f 10 85 70 d1 	movsd  0x60d170(%r13),%xmm0
  402b4c:	60 00 
  402b4e:	49 83 c5 20          	add    $0x20,%r13
  402b52:	f2 0f 59 05 0e 73 00 	mulsd  0x730e(%rip),%xmm0        # 409e68 <__dso_handle+0x240>
  402b59:	00 
  402b5a:	f2 0f 58 05 f6 72 00 	addsd  0x72f6(%rip),%xmm0        # 409e58 <__dso_handle+0x230>
  402b61:	00 
  402b62:	89 c8                	mov    %ecx,%eax
  402b64:	c1 f9 1f             	sar    $0x1f,%ecx
  402b67:	41 f7 ec             	imul   %r12d
  402b6a:	f2 44 0f 2c d0       	cvttsd2si %xmm0,%r10d
  402b6f:	c1 fa 06             	sar    $0x6,%edx
  402b72:	29 ca                	sub    %ecx,%edx
  402b74:	42 8d 0c 0a          	lea    (%rdx,%r9,1),%ecx
  402b78:	46 8d 0c 0f          	lea    (%rdi,%r9,1),%r9d
  402b7c:	48 8b 3d dd b2 20 00 	mov    0x20b2dd(%rip),%rdi        # 60de60 <display>
  402b83:	44 89 d0             	mov    %r10d,%eax
  402b86:	41 c1 fa 1f          	sar    $0x1f,%r10d
  402b8a:	41 f7 ec             	imul   %r12d
  402b8d:	44 89 c0             	mov    %r8d,%eax
  402b90:	41 29 f0             	sub    %esi,%r8d
  402b93:	48 8b 35 e6 b2 20 00 	mov    0x20b2e6(%rip),%rsi        # 60de80 <window>
  402b9a:	c1 fa 06             	sar    $0x6,%edx
  402b9d:	44 29 d2             	sub    %r10d,%edx
  402ba0:	29 d0                	sub    %edx,%eax
  402ba2:	48 8b 15 0f b3 20 00 	mov    0x20b30f(%rip),%rdx        # 60deb8 <gc>
  402ba9:	89 04 24             	mov    %eax,(%rsp)
  402bac:	e8 97 f3 ff ff       	callq  401f48 <XDrawLine@plt>
  402bb1:	83 fd 04             	cmp    $0x4,%ebp
  402bb4:	0f 85 d6 fc ff ff    	jne    402890 <draw_pole+0x380>
  402bba:	f2 0f 10 05 de a4 20 	movsd  0x20a4de(%rip),%xmm0        # 60d0a0 <opos2.10465>
  402bc1:	00 
  402bc2:	8b 05 dc 8c 20 00    	mov    0x208cdc(%rip),%eax        # 60b8a4 <height>
  402bc8:	f2 0f 59 05 98 72 00 	mulsd  0x7298(%rip),%xmm0        # 409e68 <__dso_handle+0x240>
  402bcf:	00 
  402bd0:	41 89 c0             	mov    %eax,%r8d
  402bd3:	41 c1 e8 1f          	shr    $0x1f,%r8d
  402bd7:	41 01 c0             	add    %eax,%r8d
  402bda:	8b 05 c0 8c 20 00    	mov    0x208cc0(%rip),%eax        # 60b8a0 <width>
  402be0:	41 d1 f8             	sar    %r8d
  402be3:	f2 0f 58 05 6d 72 00 	addsd  0x726d(%rip),%xmm0        # 409e58 <__dso_handle+0x230>
  402bea:	00 
  402beb:	41 89 c1             	mov    %eax,%r9d
  402bee:	41 c1 e9 1f          	shr    $0x1f,%r9d
  402bf2:	41 01 c1             	add    %eax,%r9d
  402bf5:	41 d1 f9             	sar    %r9d
  402bf8:	f2 0f 2c c8          	cvttsd2si %xmm0,%ecx
  402bfc:	f2 0f 10 05 cc a4 20 	movsd  0x20a4cc(%rip),%xmm0        # 60d0d0 <opos1.10464+0x10>
  402c03:	00 
  402c04:	f2 0f 59 05 5c 72 00 	mulsd  0x725c(%rip),%xmm0        # 409e68 <__dso_handle+0x240>
  402c0b:	00 
  402c0c:	f2 0f 58 05 44 72 00 	addsd  0x7244(%rip),%xmm0        # 409e58 <__dso_handle+0x230>
  402c13:	00 
  402c14:	89 c8                	mov    %ecx,%eax
  402c16:	c1 f9 1f             	sar    $0x1f,%ecx
  402c19:	41 f7 ec             	imul   %r12d
  402c1c:	89 d7                	mov    %edx,%edi
  402c1e:	c1 ff 06             	sar    $0x6,%edi
  402c21:	29 cf                	sub    %ecx,%edi
  402c23:	f2 0f 2c c8          	cvttsd2si %xmm0,%ecx
  402c27:	f2 0f 10 05 91 a4 20 	movsd  0x20a491(%rip),%xmm0        # 60d0c0 <opos1.10464>
  402c2e:	00 
  402c2f:	f2 0f 59 05 31 72 00 	mulsd  0x7231(%rip),%xmm0        # 409e68 <__dso_handle+0x240>
  402c36:	00 
  402c37:	f2 0f 58 05 19 72 00 	addsd  0x7219(%rip),%xmm0        # 409e58 <__dso_handle+0x230>
  402c3e:	00 
  402c3f:	89 c8                	mov    %ecx,%eax
  402c41:	c1 f9 1f             	sar    $0x1f,%ecx
  402c44:	41 f7 ec             	imul   %r12d
  402c47:	89 d6                	mov    %edx,%esi
  402c49:	c1 fe 06             	sar    $0x6,%esi
  402c4c:	29 ce                	sub    %ecx,%esi
  402c4e:	f2 0f 2c c8          	cvttsd2si %xmm0,%ecx
  402c52:	f2 0f 10 05 56 a4 20 	movsd  0x20a456(%rip),%xmm0        # 60d0b0 <opos2.10465+0x10>
  402c59:	00 
  402c5a:	f2 0f 59 05 06 72 00 	mulsd  0x7206(%rip),%xmm0        # 409e68 <__dso_handle+0x240>
  402c61:	00 
  402c62:	f2 0f 58 05 ee 71 00 	addsd  0x71ee(%rip),%xmm0        # 409e58 <__dso_handle+0x230>
  402c69:	00 
  402c6a:	89 c8                	mov    %ecx,%eax
  402c6c:	c1 f9 1f             	sar    $0x1f,%ecx
  402c6f:	41 f7 ec             	imul   %r12d
  402c72:	f2 44 0f 2c d0       	cvttsd2si %xmm0,%r10d
  402c77:	c1 fa 06             	sar    $0x6,%edx
  402c7a:	29 ca                	sub    %ecx,%edx
  402c7c:	42 8d 0c 0a          	lea    (%rdx,%r9,1),%ecx
  402c80:	46 8d 0c 0f          	lea    (%rdi,%r9,1),%r9d
  402c84:	48 8b 3d d5 b1 20 00 	mov    0x20b1d5(%rip),%rdi        # 60de60 <display>
  402c8b:	44 89 d0             	mov    %r10d,%eax
  402c8e:	41 c1 fa 1f          	sar    $0x1f,%r10d
  402c92:	41 f7 ec             	imul   %r12d
  402c95:	44 89 c0             	mov    %r8d,%eax
  402c98:	41 29 f0             	sub    %esi,%r8d
  402c9b:	48 8b 35 de b1 20 00 	mov    0x20b1de(%rip),%rsi        # 60de80 <window>
  402ca2:	c1 fa 06             	sar    $0x6,%edx
  402ca5:	44 29 d2             	sub    %r10d,%edx
  402ca8:	29 d0                	sub    %edx,%eax
  402caa:	48 8b 15 07 b2 20 00 	mov    0x20b207(%rip),%rdx        # 60deb8 <gc>
  402cb1:	89 04 24             	mov    %eax,(%rsp)
  402cb4:	e8 8f f2 ff ff       	callq  401f48 <XDrawLine@plt>
  402cb9:	48 8b 15 80 b1 20 00 	mov    0x20b180(%rip),%rdx        # 60de40 <foreground>
  402cc0:	48 8b 35 f1 b1 20 00 	mov    0x20b1f1(%rip),%rsi        # 60deb8 <gc>
  402cc7:	48 8b 3d 92 b1 20 00 	mov    0x20b192(%rip),%rdi        # 60de60 <display>
  402cce:	e8 95 f2 ff ff       	callq  401f68 <XSetForeground@plt>
  402cd3:	48 8b 7c 24 18       	mov    0x18(%rsp),%rdi
  402cd8:	48 8d b4 24 60 01 00 	lea    0x160(%rsp),%rsi
  402cdf:	00 
  402ce0:	ba c0 d0 60 00       	mov    $0x60d0c0,%edx
  402ce5:	e8 e6 2b 00 00       	callq  4058d0 <P_mult>
  402cea:	48 8b 7c 24 18       	mov    0x18(%rsp),%rdi
  402cef:	48 8d b4 24 40 01 00 	lea    0x140(%rsp),%rsi
  402cf6:	00 
  402cf7:	ba a0 d0 60 00       	mov    $0x60d0a0,%edx
  402cfc:	e8 cf 2b 00 00       	callq  4058d0 <P_mult>
  402d01:	f2 0f 10 05 97 a3 20 	movsd  0x20a397(%rip),%xmm0        # 60d0a0 <opos2.10465>
  402d08:	00 
  402d09:	8b 05 95 8b 20 00    	mov    0x208b95(%rip),%eax        # 60b8a4 <height>
  402d0f:	f2 0f 59 05 51 71 00 	mulsd  0x7151(%rip),%xmm0        # 409e68 <__dso_handle+0x240>
  402d16:	00 
  402d17:	41 89 c0             	mov    %eax,%r8d
  402d1a:	41 c1 e8 1f          	shr    $0x1f,%r8d
  402d1e:	41 01 c0             	add    %eax,%r8d
  402d21:	8b 05 79 8b 20 00    	mov    0x208b79(%rip),%eax        # 60b8a0 <width>
  402d27:	41 d1 f8             	sar    %r8d
  402d2a:	f2 0f 58 05 26 71 00 	addsd  0x7126(%rip),%xmm0        # 409e58 <__dso_handle+0x230>
  402d31:	00 
  402d32:	41 89 c1             	mov    %eax,%r9d
  402d35:	41 c1 e9 1f          	shr    $0x1f,%r9d
  402d39:	41 01 c1             	add    %eax,%r9d
  402d3c:	41 d1 f9             	sar    %r9d
  402d3f:	31 db                	xor    %ebx,%ebx
  402d41:	f2 0f 2c c8          	cvttsd2si %xmm0,%ecx
  402d45:	f2 0f 10 05 83 a3 20 	movsd  0x20a383(%rip),%xmm0        # 60d0d0 <opos1.10464+0x10>
  402d4c:	00 
  402d4d:	f2 0f 59 05 13 71 00 	mulsd  0x7113(%rip),%xmm0        # 409e68 <__dso_handle+0x240>
  402d54:	00 
  402d55:	f2 0f 58 05 fb 70 00 	addsd  0x70fb(%rip),%xmm0        # 409e58 <__dso_handle+0x230>
  402d5c:	00 
  402d5d:	89 c8                	mov    %ecx,%eax
  402d5f:	c1 f9 1f             	sar    $0x1f,%ecx
  402d62:	41 f7 ec             	imul   %r12d
  402d65:	89 d7                	mov    %edx,%edi
  402d67:	c1 ff 06             	sar    $0x6,%edi
  402d6a:	29 cf                	sub    %ecx,%edi
  402d6c:	f2 0f 2c c8          	cvttsd2si %xmm0,%ecx
  402d70:	f2 0f 10 05 48 a3 20 	movsd  0x20a348(%rip),%xmm0        # 60d0c0 <opos1.10464>
  402d77:	00 
  402d78:	f2 0f 59 05 e8 70 00 	mulsd  0x70e8(%rip),%xmm0        # 409e68 <__dso_handle+0x240>
  402d7f:	00 
  402d80:	f2 0f 58 05 d0 70 00 	addsd  0x70d0(%rip),%xmm0        # 409e58 <__dso_handle+0x230>
  402d87:	00 
  402d88:	89 c8                	mov    %ecx,%eax
  402d8a:	c1 f9 1f             	sar    $0x1f,%ecx
  402d8d:	41 f7 ec             	imul   %r12d
  402d90:	89 d6                	mov    %edx,%esi
  402d92:	c1 fe 06             	sar    $0x6,%esi
  402d95:	29 ce                	sub    %ecx,%esi
  402d97:	f2 0f 2c c8          	cvttsd2si %xmm0,%ecx
  402d9b:	f2 0f 10 05 0d a3 20 	movsd  0x20a30d(%rip),%xmm0        # 60d0b0 <opos2.10465+0x10>
  402da2:	00 
  402da3:	f2 0f 59 05 bd 70 00 	mulsd  0x70bd(%rip),%xmm0        # 409e68 <__dso_handle+0x240>
  402daa:	00 
  402dab:	f2 0f 58 05 a5 70 00 	addsd  0x70a5(%rip),%xmm0        # 409e58 <__dso_handle+0x230>
  402db2:	00 
  402db3:	89 c8                	mov    %ecx,%eax
  402db5:	c1 f9 1f             	sar    $0x1f,%ecx
  402db8:	41 f7 ec             	imul   %r12d
  402dbb:	f2 44 0f 2c d0       	cvttsd2si %xmm0,%r10d
  402dc0:	c1 fa 06             	sar    $0x6,%edx
  402dc3:	29 ca                	sub    %ecx,%edx
  402dc5:	42 8d 0c 0a          	lea    (%rdx,%r9,1),%ecx
  402dc9:	46 8d 0c 0f          	lea    (%rdi,%r9,1),%r9d
  402dcd:	48 8b 3d 8c b0 20 00 	mov    0x20b08c(%rip),%rdi        # 60de60 <display>
  402dd4:	44 89 d0             	mov    %r10d,%eax
  402dd7:	41 c1 fa 1f          	sar    $0x1f,%r10d
  402ddb:	41 f7 ec             	imul   %r12d
  402dde:	44 89 c0             	mov    %r8d,%eax
  402de1:	41 29 f0             	sub    %esi,%r8d
  402de4:	48 8b 35 95 b0 20 00 	mov    0x20b095(%rip),%rsi        # 60de80 <window>
  402deb:	c1 fa 06             	sar    $0x6,%edx
  402dee:	44 29 d2             	sub    %r10d,%edx
  402df1:	29 d0                	sub    %edx,%eax
  402df3:	48 8b 15 be b0 20 00 	mov    0x20b0be(%rip),%rdx        # 60deb8 <gc>
  402dfa:	89 04 24             	mov    %eax,(%rsp)
  402dfd:	e8 46 f1 ff ff       	callq  401f48 <XDrawLine@plt>
  402e02:	48 8b 35 af b0 20 00 	mov    0x20b0af(%rip),%rsi        # 60deb8 <gc>
  402e09:	48 8b 3d 50 b0 20 00 	mov    0x20b050(%rip),%rdi        # 60de60 <display>
  402e10:	41 b9 01 00 00 00    	mov    $0x1,%r9d
  402e16:	41 b8 01 00 00 00    	mov    $0x1,%r8d
  402e1c:	31 c9                	xor    %ecx,%ecx
  402e1e:	ba 01 00 00 00       	mov    $0x1,%edx
  402e23:	e8 20 f2 ff ff       	callq  402048 <XSetLineAttributes@plt>
  402e28:	48 8d 74 24 40       	lea    0x40(%rsp),%rsi
  402e2d:	48 8b 7c 24 18       	mov    0x18(%rsp),%rdi
  402e32:	48 8d 93 e0 d0 60 00 	lea    0x60d0e0(%rbx),%rdx
  402e39:	48 01 de             	add    %rbx,%rsi
  402e3c:	48 83 c3 20          	add    $0x20,%rbx
  402e40:	e8 8b 2a 00 00       	callq  4058d0 <P_mult>
  402e45:	48 81 fb 00 01 00 00 	cmp    $0x100,%rbx
  402e4c:	75 da                	jne    402e28 <draw_pole+0x918>
  402e4e:	31 ed                	xor    %ebp,%ebp
  402e50:	45 31 ed             	xor    %r13d,%r13d
  402e53:	41 bc d3 4d 62 10    	mov    $0x10624dd3,%r12d
  402e59:	0f 1f 80 00 00 00 00 	nopl   0x0(%rax)
  402e60:	83 c5 01             	add    $0x1,%ebp
  402e63:	8b 05 3b 8a 20 00    	mov    0x208a3b(%rip),%eax        # 60b8a4 <height>
  402e69:	89 eb                	mov    %ebp,%ebx
  402e6b:	83 e3 03             	and    $0x3,%ebx
  402e6e:	4c 63 d3             	movslq %ebx,%r10
  402e71:	41 89 c0             	mov    %eax,%r8d
  402e74:	49 c1 e2 05          	shl    $0x5,%r10
  402e78:	41 c1 e8 1f          	shr    $0x1f,%r8d
  402e7c:	f2 41 0f 10 82 e0 d0 	movsd  0x60d0e0(%r10),%xmm0
  402e83:	60 00 
  402e85:	41 01 c0             	add    %eax,%r8d
  402e88:	8b 05 12 8a 20 00    	mov    0x208a12(%rip),%eax        # 60b8a0 <width>
  402e8e:	41 d1 f8             	sar    %r8d
  402e91:	f2 0f 59 05 cf 6f 00 	mulsd  0x6fcf(%rip),%xmm0        # 409e68 <__dso_handle+0x240>
  402e98:	00 
  402e99:	41 89 c1             	mov    %eax,%r9d
  402e9c:	41 c1 e9 1f          	shr    $0x1f,%r9d
  402ea0:	41 01 c1             	add    %eax,%r9d
  402ea3:	41 d1 f9             	sar    %r9d
  402ea6:	f2 0f 58 05 aa 6f 00 	addsd  0x6faa(%rip),%xmm0        # 409e58 <__dso_handle+0x230>
  402ead:	00 
  402eae:	f2 0f 2c c8          	cvttsd2si %xmm0,%ecx
  402eb2:	f2 41 0f 10 85 f0 d0 	movsd  0x60d0f0(%r13),%xmm0
  402eb9:	60 00 
  402ebb:	f2 0f 59 05 a5 6f 00 	mulsd  0x6fa5(%rip),%xmm0        # 409e68 <__dso_handle+0x240>
  402ec2:	00 
  402ec3:	f2 0f 58 05 8d 6f 00 	addsd  0x6f8d(%rip),%xmm0        # 409e58 <__dso_handle+0x230>
  402eca:	00 
  402ecb:	89 c8                	mov    %ecx,%eax
  402ecd:	c1 f9 1f             	sar    $0x1f,%ecx
  402ed0:	41 f7 ec             	imul   %r12d
  402ed3:	89 d7                	mov    %edx,%edi
  402ed5:	c1 ff 06             	sar    $0x6,%edi
  402ed8:	29 cf                	sub    %ecx,%edi
  402eda:	f2 0f 2c c8          	cvttsd2si %xmm0,%ecx
  402ede:	f2 41 0f 10 85 e0 d0 	movsd  0x60d0e0(%r13),%xmm0
  402ee5:	60 00 
  402ee7:	f2 0f 59 05 79 6f 00 	mulsd  0x6f79(%rip),%xmm0        # 409e68 <__dso_handle+0x240>
  402eee:	00 
  402eef:	f2 0f 58 05 61 6f 00 	addsd  0x6f61(%rip),%xmm0        # 409e58 <__dso_handle+0x230>
  402ef6:	00 
  402ef7:	89 c8                	mov    %ecx,%eax
  402ef9:	c1 f9 1f             	sar    $0x1f,%ecx
  402efc:	41 f7 ec             	imul   %r12d
  402eff:	89 d6                	mov    %edx,%esi
  402f01:	c1 fe 06             	sar    $0x6,%esi
  402f04:	29 ce                	sub    %ecx,%esi
  402f06:	f2 0f 2c c8          	cvttsd2si %xmm0,%ecx
  402f0a:	f2 41 0f 10 82 f0 d0 	movsd  0x60d0f0(%r10),%xmm0
  402f11:	60 00 
  402f13:	f2 0f 59 05 4d 6f 00 	mulsd  0x6f4d(%rip),%xmm0        # 409e68 <__dso_handle+0x240>
  402f1a:	00 
  402f1b:	f2 0f 58 05 35 6f 00 	addsd  0x6f35(%rip),%xmm0        # 409e58 <__dso_handle+0x230>
  402f22:	00 
  402f23:	89 c8                	mov    %ecx,%eax
  402f25:	c1 f9 1f             	sar    $0x1f,%ecx
  402f28:	41 f7 ec             	imul   %r12d
  402f2b:	f2 44 0f 2c d0       	cvttsd2si %xmm0,%r10d
  402f30:	c1 fa 06             	sar    $0x6,%edx
  402f33:	29 ca                	sub    %ecx,%edx
  402f35:	42 8d 0c 0a          	lea    (%rdx,%r9,1),%ecx
  402f39:	46 8d 0c 0f          	lea    (%rdi,%r9,1),%r9d
  402f3d:	48 8b 3d 1c af 20 00 	mov    0x20af1c(%rip),%rdi        # 60de60 <display>
  402f44:	44 89 d0             	mov    %r10d,%eax
  402f47:	41 c1 fa 1f          	sar    $0x1f,%r10d
  402f4b:	41 f7 ec             	imul   %r12d
  402f4e:	44 89 c0             	mov    %r8d,%eax
  402f51:	41 29 f0             	sub    %esi,%r8d
  402f54:	48 8b 35 25 af 20 00 	mov    0x20af25(%rip),%rsi        # 60de80 <window>
  402f5b:	c1 fa 06             	sar    $0x6,%edx
  402f5e:	44 29 d2             	sub    %r10d,%edx
  402f61:	29 d0                	sub    %edx,%eax
  402f63:	48 8b 15 4e af 20 00 	mov    0x20af4e(%rip),%rdx        # 60deb8 <gc>
  402f6a:	89 04 24             	mov    %eax,(%rsp)
  402f6d:	e8 d6 ef ff ff       	callq  401f48 <XDrawLine@plt>
  402f72:	8b 05 2c 89 20 00    	mov    0x20892c(%rip),%eax        # 60b8a4 <height>
  402f78:	41 89 c0             	mov    %eax,%r8d
  402f7b:	41 c1 e8 1f          	shr    $0x1f,%r8d
  402f7f:	41 01 c0             	add    %eax,%r8d
  402f82:	8b 05 18 89 20 00    	mov    0x208918(%rip),%eax        # 60b8a0 <width>
  402f88:	41 d1 f8             	sar    %r8d
  402f8b:	41 89 c1             	mov    %eax,%r9d
  402f8e:	41 c1 e9 1f          	shr    $0x1f,%r9d
  402f92:	41 01 c1             	add    %eax,%r9d
  402f95:	41 d1 f9             	sar    %r9d
  402f98:	83 c3 04             	add    $0x4,%ebx
  402f9b:	48 c1 e3 05          	shl    $0x5,%rbx
  402f9f:	f2 0f 10 83 e0 d0 60 	movsd  0x60d0e0(%rbx),%xmm0
  402fa6:	00 
  402fa7:	f2 0f 59 05 b9 6e 00 	mulsd  0x6eb9(%rip),%xmm0        # 409e68 <__dso_handle+0x240>
  402fae:	00 
  402faf:	f2 0f 58 05 a1 6e 00 	addsd  0x6ea1(%rip),%xmm0        # 409e58 <__dso_handle+0x230>
  402fb6:	00 
  402fb7:	f2 0f 2c c8          	cvttsd2si %xmm0,%ecx
  402fbb:	f2 41 0f 10 85 70 d1 	movsd  0x60d170(%r13),%xmm0
  402fc2:	60 00 
  402fc4:	f2 0f 59 05 9c 6e 00 	mulsd  0x6e9c(%rip),%xmm0        # 409e68 <__dso_handle+0x240>
  402fcb:	00 
  402fcc:	f2 0f 58 05 84 6e 00 	addsd  0x6e84(%rip),%xmm0        # 409e58 <__dso_handle+0x230>
  402fd3:	00 
  402fd4:	89 c8                	mov    %ecx,%eax
  402fd6:	c1 f9 1f             	sar    $0x1f,%ecx
  402fd9:	41 f7 ec             	imul   %r12d
  402fdc:	89 d7                	mov    %edx,%edi
  402fde:	c1 ff 06             	sar    $0x6,%edi
  402fe1:	29 cf                	sub    %ecx,%edi
  402fe3:	f2 0f 2c c8          	cvttsd2si %xmm0,%ecx
  402fe7:	f2 41 0f 10 85 60 d1 	movsd  0x60d160(%r13),%xmm0
  402fee:	60 00 
  402ff0:	f2 0f 59 05 70 6e 00 	mulsd  0x6e70(%rip),%xmm0        # 409e68 <__dso_handle+0x240>
  402ff7:	00 
  402ff8:	f2 0f 58 05 58 6e 00 	addsd  0x6e58(%rip),%xmm0        # 409e58 <__dso_handle+0x230>
  402fff:	00 
  403000:	89 c8                	mov    %ecx,%eax
  403002:	c1 f9 1f             	sar    $0x1f,%ecx
  403005:	41 f7 ec             	imul   %r12d
  403008:	89 d6                	mov    %edx,%esi
  40300a:	c1 fe 06             	sar    $0x6,%esi
  40300d:	29 ce                	sub    %ecx,%esi
  40300f:	f2 0f 2c c8          	cvttsd2si %xmm0,%ecx
  403013:	f2 0f 10 83 f0 d0 60 	movsd  0x60d0f0(%rbx),%xmm0
  40301a:	00 
  40301b:	f2 0f 59 05 45 6e 00 	mulsd  0x6e45(%rip),%xmm0        # 409e68 <__dso_handle+0x240>
  403022:	00 
  403023:	f2 0f 58 05 2d 6e 00 	addsd  0x6e2d(%rip),%xmm0        # 409e58 <__dso_handle+0x230>
  40302a:	00 
  40302b:	89 c8                	mov    %ecx,%eax
  40302d:	c1 f9 1f             	sar    $0x1f,%ecx
  403030:	41 f7 ec             	imul   %r12d
  403033:	f2 44 0f 2c d0       	cvttsd2si %xmm0,%r10d
  403038:	c1 fa 06             	sar    $0x6,%edx
  40303b:	29 ca                	sub    %ecx,%edx
  40303d:	42 8d 0c 0a          	lea    (%rdx,%r9,1),%ecx
  403041:	46 8d 0c 0f          	lea    (%rdi,%r9,1),%r9d
  403045:	48 8b 3d 14 ae 20 00 	mov    0x20ae14(%rip),%rdi        # 60de60 <display>
  40304c:	44 89 d0             	mov    %r10d,%eax
  40304f:	41 c1 fa 1f          	sar    $0x1f,%r10d
  403053:	41 f7 ec             	imul   %r12d
  403056:	44 89 c0             	mov    %r8d,%eax
  403059:	41 29 f0             	sub    %esi,%r8d
  40305c:	48 8b 35 1d ae 20 00 	mov    0x20ae1d(%rip),%rsi        # 60de80 <window>
  403063:	c1 fa 06             	sar    $0x6,%edx
  403066:	44 29 d2             	sub    %r10d,%edx
  403069:	29 d0                	sub    %edx,%eax
  40306b:	48 8b 15 46 ae 20 00 	mov    0x20ae46(%rip),%rdx        # 60deb8 <gc>
  403072:	89 04 24             	mov    %eax,(%rsp)
  403075:	e8 ce ee ff ff       	callq  401f48 <XDrawLine@plt>
  40307a:	f2 41 0f 10 85 60 d1 	movsd  0x60d160(%r13),%xmm0
  403081:	60 00 
  403083:	8b 05 1b 88 20 00    	mov    0x20881b(%rip),%eax        # 60b8a4 <height>
  403089:	f2 0f 59 05 d7 6d 00 	mulsd  0x6dd7(%rip),%xmm0        # 409e68 <__dso_handle+0x240>
  403090:	00 
  403091:	41 89 c0             	mov    %eax,%r8d
  403094:	41 c1 e8 1f          	shr    $0x1f,%r8d
  403098:	41 01 c0             	add    %eax,%r8d
  40309b:	8b 05 ff 87 20 00    	mov    0x2087ff(%rip),%eax        # 60b8a0 <width>
  4030a1:	41 d1 f8             	sar    %r8d
  4030a4:	f2 0f 58 05 ac 6d 00 	addsd  0x6dac(%rip),%xmm0        # 409e58 <__dso_handle+0x230>
  4030ab:	00 
  4030ac:	41 89 c1             	mov    %eax,%r9d
  4030af:	41 c1 e9 1f          	shr    $0x1f,%r9d
  4030b3:	41 01 c1             	add    %eax,%r9d
  4030b6:	41 d1 f9             	sar    %r9d
  4030b9:	f2 0f 2c c8          	cvttsd2si %xmm0,%ecx
  4030bd:	f2 41 0f 10 85 f0 d0 	movsd  0x60d0f0(%r13),%xmm0
  4030c4:	60 00 
  4030c6:	f2 0f 59 05 9a 6d 00 	mulsd  0x6d9a(%rip),%xmm0        # 409e68 <__dso_handle+0x240>
  4030cd:	00 
  4030ce:	f2 0f 58 05 82 6d 00 	addsd  0x6d82(%rip),%xmm0        # 409e58 <__dso_handle+0x230>
  4030d5:	00 
  4030d6:	89 c8                	mov    %ecx,%eax
  4030d8:	c1 f9 1f             	sar    $0x1f,%ecx
  4030db:	41 f7 ec             	imul   %r12d
  4030de:	89 d7                	mov    %edx,%edi
  4030e0:	c1 ff 06             	sar    $0x6,%edi
  4030e3:	29 cf                	sub    %ecx,%edi
  4030e5:	f2 0f 2c c8          	cvttsd2si %xmm0,%ecx
  4030e9:	f2 41 0f 10 85 e0 d0 	movsd  0x60d0e0(%r13),%xmm0
  4030f0:	60 00 
  4030f2:	f2 0f 59 05 6e 6d 00 	mulsd  0x6d6e(%rip),%xmm0        # 409e68 <__dso_handle+0x240>
  4030f9:	00 
  4030fa:	f2 0f 58 05 56 6d 00 	addsd  0x6d56(%rip),%xmm0        # 409e58 <__dso_handle+0x230>
  403101:	00 
  403102:	89 c8                	mov    %ecx,%eax
  403104:	41 f7 ec             	imul   %r12d
  403107:	89 d6                	mov    %edx,%esi
  403109:	c1 fe 06             	sar    $0x6,%esi
  40310c:	c1 f9 1f             	sar    $0x1f,%ecx
  40310f:	29 ce                	sub    %ecx,%esi
  403111:	f2 0f 2c c8          	cvttsd2si %xmm0,%ecx
  403115:	f2 41 0f 10 85 70 d1 	movsd  0x60d170(%r13),%xmm0
  40311c:	60 00 
  40311e:	49 83 c5 20          	add    $0x20,%r13
  403122:	f2 0f 59 05 3e 6d 00 	mulsd  0x6d3e(%rip),%xmm0        # 409e68 <__dso_handle+0x240>
  403129:	00 
  40312a:	f2 0f 58 05 26 6d 00 	addsd  0x6d26(%rip),%xmm0        # 409e58 <__dso_handle+0x230>
  403131:	00 
  403132:	89 c8                	mov    %ecx,%eax
  403134:	c1 f9 1f             	sar    $0x1f,%ecx
  403137:	41 f7 ec             	imul   %r12d
  40313a:	f2 44 0f 2c d0       	cvttsd2si %xmm0,%r10d
  40313f:	c1 fa 06             	sar    $0x6,%edx
  403142:	29 ca                	sub    %ecx,%edx
  403144:	42 8d 0c 0a          	lea    (%rdx,%r9,1),%ecx
  403148:	46 8d 0c 0f          	lea    (%rdi,%r9,1),%r9d
  40314c:	48 8b 3d 0d ad 20 00 	mov    0x20ad0d(%rip),%rdi        # 60de60 <display>
  403153:	44 89 d0             	mov    %r10d,%eax
  403156:	41 c1 fa 1f          	sar    $0x1f,%r10d
  40315a:	41 f7 ec             	imul   %r12d
  40315d:	44 89 c0             	mov    %r8d,%eax
  403160:	41 29 f0             	sub    %esi,%r8d
  403163:	48 8b 35 16 ad 20 00 	mov    0x20ad16(%rip),%rsi        # 60de80 <window>
  40316a:	c1 fa 06             	sar    $0x6,%edx
  40316d:	44 29 d2             	sub    %r10d,%edx
  403170:	29 d0                	sub    %edx,%eax
  403172:	48 8b 15 3f ad 20 00 	mov    0x20ad3f(%rip),%rdx        # 60deb8 <gc>
  403179:	89 04 24             	mov    %eax,(%rsp)
  40317c:	e8 c7 ed ff ff       	callq  401f48 <XDrawLine@plt>
  403181:	83 fd 04             	cmp    $0x4,%ebp
  403184:	0f 85 d6 fc ff ff    	jne    402e60 <draw_pole+0x950>
  40318a:	48 8b 05 f7 ac 20 00 	mov    0x20acf7(%rip),%rax        # 60de88 <pole>
  403191:	48 8d 9c 24 80 01 00 	lea    0x180(%rsp),%rbx
  403198:	00 
  403199:	be 4a 9c 40 00       	mov    $0x409c4a,%esi
  40319e:	48 89 df             	mov    %rbx,%rdi
  4031a1:	f2 0f 10 80 80 00 00 	movsd  0x80(%rax),%xmm0
  4031a8:	00 
  4031a9:	b8 01 00 00 00       	mov    $0x1,%eax
  4031ae:	e8 e5 ed ff ff       	callq  401f98 <sprintf@plt>
  4031b3:	48 8b 05 ce ac 20 00 	mov    0x20acce(%rip),%rax        # 60de88 <pole>
  4031ba:	f2 0f 10 05 ae 6c 00 	movsd  0x6cae(%rip),%xmm0        # 409e70 <__dso_handle+0x248>
  4031c1:	00 
  4031c2:	66 0f 2e 80 80 00 00 	ucomisd 0x80(%rax),%xmm0
  4031c9:	00 
  4031ca:	76 3c                	jbe    403208 <draw_pole+0xcf8>
  4031cc:	f2 0f 10 05 a4 6c 00 	movsd  0x6ca4(%rip),%xmm0        # 409e78 <__dso_handle+0x250>
  4031d3:	00 
  4031d4:	c6 84 24 86 01 00 00 	movb   $0x20,0x186(%rsp)
  4031db:	20 
  4031dc:	66 0f 2e 80 80 00 00 	ucomisd 0x80(%rax),%xmm0
  4031e3:	00 
  4031e4:	76 22                	jbe    403208 <draw_pole+0xcf8>
  4031e6:	f2 0f 10 05 92 6c 00 	movsd  0x6c92(%rip),%xmm0        # 409e80 <__dso_handle+0x258>
  4031ed:	00 
  4031ee:	c6 84 24 85 01 00 00 	movb   $0x20,0x185(%rsp)
  4031f5:	20 
  4031f6:	66 0f 2e 80 80 00 00 	ucomisd 0x80(%rax),%xmm0
  4031fd:	00 
  4031fe:	76 08                	jbe    403208 <draw_pole+0xcf8>
  403200:	c6 84 24 84 01 00 00 	movb   $0x20,0x184(%rsp)
  403207:	20 
  403208:	48 8b 15 f1 ab 20 00 	mov    0x20abf1(%rip),%rdx        # 60de00 <background>
  40320f:	48 8b 35 a2 ac 20 00 	mov    0x20aca2(%rip),%rsi        # 60deb8 <gc>
  403216:	48 8b 3d 43 ac 20 00 	mov    0x20ac43(%rip),%rdi        # 60de60 <display>
  40321d:	e8 46 ed ff ff       	callq  401f68 <XSetForeground@plt>
  403222:	44 8b 05 7b 86 20 00 	mov    0x20867b(%rip),%r8d        # 60b8a4 <height>
  403229:	8b 0d 71 86 20 00    	mov    0x208671(%rip),%ecx        # 60b8a0 <width>
  40322f:	41 b9 32 00 00 00    	mov    $0x32,%r9d
  403235:	48 8b 15 7c ac 20 00 	mov    0x20ac7c(%rip),%rdx        # 60deb8 <gc>
  40323c:	48 8b 35 3d ac 20 00 	mov    0x20ac3d(%rip),%rsi        # 60de80 <window>
  403243:	48 8b 3d 16 ac 20 00 	mov    0x20ac16(%rip),%rdi        # 60de60 <display>
  40324a:	c7 04 24 0f 00 00 00 	movl   $0xf,(%rsp)
  403251:	41 83 e8 1e          	sub    $0x1e,%r8d
  403255:	83 e9 4b             	sub    $0x4b,%ecx
  403258:	e8 1b ed ff ff       	callq  401f78 <XFillRectangle@plt>
  40325d:	48 8b 15 dc ab 20 00 	mov    0x20abdc(%rip),%rdx        # 60de40 <foreground>
  403264:	48 8b 35 4d ac 20 00 	mov    0x20ac4d(%rip),%rsi        # 60deb8 <gc>
  40326b:	48 8b 3d ee ab 20 00 	mov    0x20abee(%rip),%rdi        # 60de60 <display>
  403272:	e8 f1 ec ff ff       	callq  401f68 <XSetForeground@plt>
  403277:	44 8b 05 26 86 20 00 	mov    0x208626(%rip),%r8d        # 60b8a4 <height>
  40327e:	8b 0d 1c 86 20 00    	mov    0x20861c(%rip),%ecx        # 60b8a0 <width>
  403284:	49 89 d9             	mov    %rbx,%r9
  403287:	48 8b 15 2a ac 20 00 	mov    0x20ac2a(%rip),%rdx        # 60deb8 <gc>
  40328e:	48 8b 35 eb ab 20 00 	mov    0x20abeb(%rip),%rsi        # 60de80 <window>
  403295:	48 8b 3d c4 ab 20 00 	mov    0x20abc4(%rip),%rdi        # 60de60 <display>
  40329c:	c7 04 24 07 00 00 00 	movl   $0x7,(%rsp)
  4032a3:	41 83 e8 14          	sub    $0x14,%r8d
  4032a7:	83 e9 4b             	sub    $0x4b,%ecx
  4032aa:	e8 89 ea ff ff       	callq  401d38 <XDrawString@plt>
  4032af:	48 81 c4 98 01 00 00 	add    $0x198,%rsp
  4032b6:	5b                   	pop    %rbx
  4032b7:	5d                   	pop    %rbp
  4032b8:	41 5c                	pop    %r12
  4032ba:	41 5d                	pop    %r13
  4032bc:	41 5e                	pop    %r14
  4032be:	41 5f                	pop    %r15
  4032c0:	c3                   	retq   
  4032c1:	0f 1f 80 00 00 00 00 	nopl   0x0(%rax)
  4032c8:	0f 1f 84 00 00 00 00 	nopl   0x0(%rax,%rax,1)
  4032cf:	00 

00000000004032d0 <draw_frame>:
  4032d0:	41 55                	push   %r13
  4032d2:	41 54                	push   %r12
  4032d4:	49 89 fc             	mov    %rdi,%r12
  4032d7:	4d 8d 6c 24 20       	lea    0x20(%r12),%r13
  4032dc:	55                   	push   %rbp
  4032dd:	bd d3 4d 62 10       	mov    $0x10624dd3,%ebp
  4032e2:	53                   	push   %rbx
  4032e3:	49 8d 5c 24 40       	lea    0x40(%r12),%rbx
  4032e8:	48 83 ec 38          	sub    $0x38,%rsp
  4032ec:	48 8b 15 0d ab 20 00 	mov    0x20ab0d(%rip),%rdx        # 60de00 <background>
  4032f3:	48 8b 35 be ab 20 00 	mov    0x20abbe(%rip),%rsi        # 60deb8 <gc>
  4032fa:	48 8b 3d 5f ab 20 00 	mov    0x20ab5f(%rip),%rdi        # 60de60 <display>
  403301:	e8 62 ec ff ff       	callq  401f68 <XSetForeground@plt>
  403306:	48 8b 35 ab ab 20 00 	mov    0x20abab(%rip),%rsi        # 60deb8 <gc>
  40330d:	48 8b 3d 4c ab 20 00 	mov    0x20ab4c(%rip),%rdi        # 60de60 <display>
  403314:	31 c9                	xor    %ecx,%ecx
  403316:	41 b9 01 00 00 00    	mov    $0x1,%r9d
  40331c:	41 b8 01 00 00 00    	mov    $0x1,%r8d
  403322:	ba 03 00 00 00       	mov    $0x3,%edx
  403327:	e8 1c ed ff ff       	callq  402048 <XSetLineAttributes@plt>
  40332c:	f2 0f 10 15 24 6b 00 	movsd  0x6b24(%rip),%xmm2        # 409e58 <__dso_handle+0x230>
  403333:	00 
  403334:	8b 05 6a 85 20 00    	mov    0x20856a(%rip),%eax        # 60b8a4 <height>
  40333a:	f2 0f 10 05 9e 9e 20 	movsd  0x209e9e(%rip),%xmm0        # 60d1e0 <temp.10226>
  403341:	00 
  403342:	f2 0f 10 0d ae 9e 20 	movsd  0x209eae(%rip),%xmm1        # 60d1f8 <temp.10226+0x18>
  403349:	00 
  40334a:	f2 0f 59 c2          	mulsd  %xmm2,%xmm0
  40334e:	f2 0f 10 1d c2 9e 20 	movsd  0x209ec2(%rip),%xmm3        # 60d218 <temp.10226+0x38>
  403355:	00 
  403356:	41 89 c0             	mov    %eax,%r8d
  403359:	f2 0f 11 54 24 10    	movsd  %xmm2,0x10(%rsp)
  40335f:	41 c1 e8 1f          	shr    $0x1f,%r8d
  403363:	41 01 c0             	add    %eax,%r8d
  403366:	8b 05 34 85 20 00    	mov    0x208534(%rip),%eax        # 60b8a0 <width>
  40336c:	f2 0f 58 c1          	addsd  %xmm1,%xmm0
  403370:	41 d1 f8             	sar    %r8d
  403373:	f2 0f 59 0d ed 6a 00 	mulsd  0x6aed(%rip),%xmm1        # 409e68 <__dso_handle+0x240>
  40337a:	00 
  40337b:	41 89 c1             	mov    %eax,%r9d
  40337e:	41 c1 e9 1f          	shr    $0x1f,%r9d
  403382:	f2 0f 59 05 de 6a 00 	mulsd  0x6ade(%rip),%xmm0        # 409e68 <__dso_handle+0x240>
  403389:	00 
  40338a:	41 01 c1             	add    %eax,%r9d
  40338d:	41 d1 f9             	sar    %r9d
  403390:	f2 0f 58 ca          	addsd  %xmm2,%xmm1
  403394:	f2 0f 58 c2          	addsd  %xmm2,%xmm0
  403398:	f2 0f 2c c8          	cvttsd2si %xmm0,%ecx
  40339c:	66 0f 28 c3          	movapd %xmm3,%xmm0
  4033a0:	f2 0f 59 05 c0 6a 00 	mulsd  0x6ac0(%rip),%xmm0        # 409e68 <__dso_handle+0x240>
  4033a7:	00 
  4033a8:	f2 0f 58 c2          	addsd  %xmm2,%xmm0
  4033ac:	89 c8                	mov    %ecx,%eax
  4033ae:	c1 f9 1f             	sar    $0x1f,%ecx
  4033b1:	f7 ed                	imul   %ebp
  4033b3:	89 d7                	mov    %edx,%edi
  4033b5:	c1 ff 06             	sar    $0x6,%edi
  4033b8:	29 cf                	sub    %ecx,%edi
  4033ba:	f2 0f 2c c8          	cvttsd2si %xmm0,%ecx
  4033be:	f2 0f 10 05 3a 9e 20 	movsd  0x209e3a(%rip),%xmm0        # 60d200 <temp.10226+0x20>
  4033c5:	00 
  4033c6:	f2 0f 59 c2          	mulsd  %xmm2,%xmm0
  4033ca:	f2 0f 58 c3          	addsd  %xmm3,%xmm0
  4033ce:	89 c8                	mov    %ecx,%eax
  4033d0:	f2 0f 59 05 90 6a 00 	mulsd  0x6a90(%rip),%xmm0        # 409e68 <__dso_handle+0x240>
  4033d7:	00 
  4033d8:	c1 f9 1f             	sar    $0x1f,%ecx
  4033db:	f7 ed                	imul   %ebp
  4033dd:	89 d6                	mov    %edx,%esi
  4033df:	c1 fe 06             	sar    $0x6,%esi
  4033e2:	29 ce                	sub    %ecx,%esi
  4033e4:	f2 0f 2c c9          	cvttsd2si %xmm1,%ecx
  4033e8:	f2 0f 58 c2          	addsd  %xmm2,%xmm0
  4033ec:	f2 44 0f 2c d0       	cvttsd2si %xmm0,%r10d
  4033f1:	89 c8                	mov    %ecx,%eax
  4033f3:	c1 f9 1f             	sar    $0x1f,%ecx
  4033f6:	f7 ed                	imul   %ebp
  4033f8:	c1 fa 06             	sar    $0x6,%edx
  4033fb:	29 ca                	sub    %ecx,%edx
  4033fd:	44 89 d0             	mov    %r10d,%eax
  403400:	41 c1 fa 1f          	sar    $0x1f,%r10d
  403404:	42 8d 0c 0a          	lea    (%rdx,%r9,1),%ecx
  403408:	46 8d 0c 0f          	lea    (%rdi,%r9,1),%r9d
  40340c:	48 8b 3d 4d aa 20 00 	mov    0x20aa4d(%rip),%rdi        # 60de60 <display>
  403413:	f7 ed                	imul   %ebp
  403415:	44 89 c0             	mov    %r8d,%eax
  403418:	41 29 f0             	sub    %esi,%r8d
  40341b:	48 8b 35 5e aa 20 00 	mov    0x20aa5e(%rip),%rsi        # 60de80 <window>
  403422:	c1 fa 06             	sar    $0x6,%edx
  403425:	44 29 d2             	sub    %r10d,%edx
  403428:	29 d0                	sub    %edx,%eax
  40342a:	48 8b 15 87 aa 20 00 	mov    0x20aa87(%rip),%rdx        # 60deb8 <gc>
  403431:	89 04 24             	mov    %eax,(%rsp)
  403434:	e8 0f eb ff ff       	callq  401f48 <XDrawLine@plt>
  403439:	f2 0f 10 05 47 6a 00 	movsd  0x6a47(%rip),%xmm0        # 409e88 <__dso_handle+0x260>
  403440:	00 
  403441:	8b 05 5d 84 20 00    	mov    0x20845d(%rip),%eax        # 60b8a4 <height>
  403447:	f2 0f 10 54 24 10    	movsd  0x10(%rsp),%xmm2
  40344d:	48 8b 3d 0c aa 20 00 	mov    0x20aa0c(%rip),%rdi        # 60de60 <display>
  403454:	f2 0f 11 44 24 28    	movsd  %xmm0,0x28(%rsp)
  40345a:	f2 0f 59 05 9e 9d 20 	mulsd  0x209d9e(%rip),%xmm0        # 60d200 <temp.10226+0x20>
  403461:	00 
  403462:	41 b9 97 a0 40 00    	mov    $0x40a097,%r9d
  403468:	41 89 c0             	mov    %eax,%r8d
  40346b:	c7 04 24 01 00 00 00 	movl   $0x1,(%rsp)
  403472:	41 c1 e8 1f          	shr    $0x1f,%r8d
  403476:	41 01 c0             	add    %eax,%r8d
  403479:	41 d1 f8             	sar    %r8d
  40347c:	f2 0f 59 c2          	mulsd  %xmm2,%xmm0
  403480:	f2 0f 58 05 90 9d 20 	addsd  0x209d90(%rip),%xmm0        # 60d218 <temp.10226+0x38>
  403487:	00 
  403488:	f2 0f 59 05 d8 69 00 	mulsd  0x69d8(%rip),%xmm0        # 409e68 <__dso_handle+0x240>
  40348f:	00 
  403490:	f2 0f 58 c2          	addsd  %xmm2,%xmm0
  403494:	f2 0f 2c c8          	cvttsd2si %xmm0,%ecx
  403498:	f2 0f 10 44 24 28    	movsd  0x28(%rsp),%xmm0
  40349e:	f2 0f 59 05 3a 9d 20 	mulsd  0x209d3a(%rip),%xmm0        # 60d1e0 <temp.10226>
  4034a5:	00 
  4034a6:	f2 0f 59 c2          	mulsd  %xmm2,%xmm0
  4034aa:	89 c8                	mov    %ecx,%eax
  4034ac:	f7 ed                	imul   %ebp
  4034ae:	f2 0f 58 05 42 9d 20 	addsd  0x209d42(%rip),%xmm0        # 60d1f8 <temp.10226+0x18>
  4034b5:	00 
  4034b6:	89 d6                	mov    %edx,%esi
  4034b8:	c1 fe 06             	sar    $0x6,%esi
  4034bb:	c1 f9 1f             	sar    $0x1f,%ecx
  4034be:	29 ce                	sub    %ecx,%esi
  4034c0:	41 29 f0             	sub    %esi,%r8d
  4034c3:	48 8b 35 b6 a9 20 00 	mov    0x20a9b6(%rip),%rsi        # 60de80 <window>
  4034ca:	f2 0f 59 05 96 69 00 	mulsd  0x6996(%rip),%xmm0        # 409e68 <__dso_handle+0x240>
  4034d1:	00 
  4034d2:	f2 0f 58 c2          	addsd  %xmm2,%xmm0
  4034d6:	f2 0f 2c c8          	cvttsd2si %xmm0,%ecx
  4034da:	89 c8                	mov    %ecx,%eax
  4034dc:	c1 f9 1f             	sar    $0x1f,%ecx
  4034df:	f7 ed                	imul   %ebp
  4034e1:	8b 05 b9 83 20 00    	mov    0x2083b9(%rip),%eax        # 60b8a0 <width>
  4034e7:	c1 fa 06             	sar    $0x6,%edx
  4034ea:	29 ca                	sub    %ecx,%edx
  4034ec:	89 c1                	mov    %eax,%ecx
  4034ee:	c1 e9 1f             	shr    $0x1f,%ecx
  4034f1:	01 c1                	add    %eax,%ecx
  4034f3:	d1 f9                	sar    %ecx
  4034f5:	8d 0c 0a             	lea    (%rdx,%rcx,1),%ecx
  4034f8:	48 8b 15 b9 a9 20 00 	mov    0x20a9b9(%rip),%rdx        # 60deb8 <gc>
  4034ff:	e8 34 e8 ff ff       	callq  401d38 <XDrawString@plt>
  403504:	f2 0f 10 54 24 10    	movsd  0x10(%rsp),%xmm2
  40350a:	8b 05 94 83 20 00    	mov    0x208394(%rip),%eax        # 60b8a4 <height>
  403510:	f2 0f 10 05 d0 9c 20 	movsd  0x209cd0(%rip),%xmm0        # 60d1e8 <temp.10226+0x8>
  403517:	00 
  403518:	f2 0f 10 0d d8 9c 20 	movsd  0x209cd8(%rip),%xmm1        # 60d1f8 <temp.10226+0x18>
  40351f:	00 
  403520:	f2 0f 59 c2          	mulsd  %xmm2,%xmm0
  403524:	f2 0f 10 1d ec 9c 20 	movsd  0x209cec(%rip),%xmm3        # 60d218 <temp.10226+0x38>
  40352b:	00 
  40352c:	41 89 c0             	mov    %eax,%r8d
  40352f:	41 c1 e8 1f          	shr    $0x1f,%r8d
  403533:	41 01 c0             	add    %eax,%r8d
  403536:	8b 05 64 83 20 00    	mov    0x208364(%rip),%eax        # 60b8a0 <width>
  40353c:	f2 0f 58 c1          	addsd  %xmm1,%xmm0
  403540:	41 d1 f8             	sar    %r8d
  403543:	f2 0f 59 0d 1d 69 00 	mulsd  0x691d(%rip),%xmm1        # 409e68 <__dso_handle+0x240>
  40354a:	00 
  40354b:	41 89 c1             	mov    %eax,%r9d
  40354e:	41 c1 e9 1f          	shr    $0x1f,%r9d
  403552:	f2 0f 59 05 0e 69 00 	mulsd  0x690e(%rip),%xmm0        # 409e68 <__dso_handle+0x240>
  403559:	00 
  40355a:	41 01 c1             	add    %eax,%r9d
  40355d:	41 d1 f9             	sar    %r9d
  403560:	f2 0f 58 ca          	addsd  %xmm2,%xmm1
  403564:	f2 0f 58 c2          	addsd  %xmm2,%xmm0
  403568:	f2 0f 2c c8          	cvttsd2si %xmm0,%ecx
  40356c:	66 0f 28 c3          	movapd %xmm3,%xmm0
  403570:	f2 0f 59 05 f0 68 00 	mulsd  0x68f0(%rip),%xmm0        # 409e68 <__dso_handle+0x240>
  403577:	00 
  403578:	f2 0f 58 c2          	addsd  %xmm2,%xmm0
  40357c:	89 c8                	mov    %ecx,%eax
  40357e:	c1 f9 1f             	sar    $0x1f,%ecx
  403581:	f7 ed                	imul   %ebp
  403583:	89 d7                	mov    %edx,%edi
  403585:	c1 ff 06             	sar    $0x6,%edi
  403588:	29 cf                	sub    %ecx,%edi
  40358a:	f2 0f 2c c8          	cvttsd2si %xmm0,%ecx
  40358e:	f2 0f 10 05 72 9c 20 	movsd  0x209c72(%rip),%xmm0        # 60d208 <temp.10226+0x28>
  403595:	00 
  403596:	f2 0f 59 c2          	mulsd  %xmm2,%xmm0
  40359a:	f2 0f 58 c3          	addsd  %xmm3,%xmm0
  40359e:	89 c8                	mov    %ecx,%eax
  4035a0:	f2 0f 59 05 c0 68 00 	mulsd  0x68c0(%rip),%xmm0        # 409e68 <__dso_handle+0x240>
  4035a7:	00 
  4035a8:	c1 f9 1f             	sar    $0x1f,%ecx
  4035ab:	f7 ed                	imul   %ebp
  4035ad:	89 d6                	mov    %edx,%esi
  4035af:	c1 fe 06             	sar    $0x6,%esi
  4035b2:	29 ce                	sub    %ecx,%esi
  4035b4:	f2 0f 2c c9          	cvttsd2si %xmm1,%ecx
  4035b8:	f2 0f 58 c2          	addsd  %xmm2,%xmm0
  4035bc:	f2 44 0f 2c d0       	cvttsd2si %xmm0,%r10d
  4035c1:	89 c8                	mov    %ecx,%eax
  4035c3:	c1 f9 1f             	sar    $0x1f,%ecx
  4035c6:	f7 ed                	imul   %ebp
  4035c8:	c1 fa 06             	sar    $0x6,%edx
  4035cb:	29 ca                	sub    %ecx,%edx
  4035cd:	44 89 d0             	mov    %r10d,%eax
  4035d0:	41 c1 fa 1f          	sar    $0x1f,%r10d
  4035d4:	42 8d 0c 0a          	lea    (%rdx,%r9,1),%ecx
  4035d8:	46 8d 0c 0f          	lea    (%rdi,%r9,1),%r9d
  4035dc:	48 8b 3d 7d a8 20 00 	mov    0x20a87d(%rip),%rdi        # 60de60 <display>
  4035e3:	f7 ed                	imul   %ebp
  4035e5:	44 89 c0             	mov    %r8d,%eax
  4035e8:	c1 fa 06             	sar    $0x6,%edx
  4035eb:	44 29 d2             	sub    %r10d,%edx
  4035ee:	41 29 f0             	sub    %esi,%r8d
  4035f1:	48 8b 35 88 a8 20 00 	mov    0x20a888(%rip),%rsi        # 60de80 <window>
  4035f8:	29 d0                	sub    %edx,%eax
  4035fa:	48 8b 15 b7 a8 20 00 	mov    0x20a8b7(%rip),%rdx        # 60deb8 <gc>
  403601:	89 04 24             	mov    %eax,(%rsp)
  403604:	e8 3f e9 ff ff       	callq  401f48 <XDrawLine@plt>
  403609:	f2 0f 10 44 24 28    	movsd  0x28(%rsp),%xmm0
  40360f:	8b 05 8f 82 20 00    	mov    0x20828f(%rip),%eax        # 60b8a4 <height>
  403615:	f2 0f 10 54 24 10    	movsd  0x10(%rsp),%xmm2
  40361b:	48 8b 3d 3e a8 20 00 	mov    0x20a83e(%rip),%rdi        # 60de60 <display>
  403622:	f2 0f 59 05 de 9b 20 	mulsd  0x209bde(%rip),%xmm0        # 60d208 <temp.10226+0x28>
  403629:	00 
  40362a:	41 b9 21 a3 40 00    	mov    $0x40a321,%r9d
  403630:	c7 04 24 01 00 00 00 	movl   $0x1,(%rsp)
  403637:	41 89 c0             	mov    %eax,%r8d
  40363a:	41 c1 e8 1f          	shr    $0x1f,%r8d
  40363e:	41 01 c0             	add    %eax,%r8d
  403641:	41 d1 f8             	sar    %r8d
  403644:	f2 0f 59 c2          	mulsd  %xmm2,%xmm0
  403648:	f2 0f 58 05 c8 9b 20 	addsd  0x209bc8(%rip),%xmm0        # 60d218 <temp.10226+0x38>
  40364f:	00 
  403650:	f2 0f 59 05 10 68 00 	mulsd  0x6810(%rip),%xmm0        # 409e68 <__dso_handle+0x240>
  403657:	00 
  403658:	f2 0f 58 c2          	addsd  %xmm2,%xmm0
  40365c:	f2 0f 2c c8          	cvttsd2si %xmm0,%ecx
  403660:	f2 0f 10 44 24 28    	movsd  0x28(%rsp),%xmm0
  403666:	f2 0f 59 05 7a 9b 20 	mulsd  0x209b7a(%rip),%xmm0        # 60d1e8 <temp.10226+0x8>
  40366d:	00 
  40366e:	f2 0f 59 c2          	mulsd  %xmm2,%xmm0
  403672:	89 c8                	mov    %ecx,%eax
  403674:	c1 f9 1f             	sar    $0x1f,%ecx
  403677:	f7 ed                	imul   %ebp
  403679:	f2 0f 58 05 77 9b 20 	addsd  0x209b77(%rip),%xmm0        # 60d1f8 <temp.10226+0x18>
  403680:	00 
  403681:	89 d6                	mov    %edx,%esi
  403683:	c1 fe 06             	sar    $0x6,%esi
  403686:	29 ce                	sub    %ecx,%esi
  403688:	41 29 f0             	sub    %esi,%r8d
  40368b:	48 8b 35 ee a7 20 00 	mov    0x20a7ee(%rip),%rsi        # 60de80 <window>
  403692:	f2 0f 59 05 ce 67 00 	mulsd  0x67ce(%rip),%xmm0        # 409e68 <__dso_handle+0x240>
  403699:	00 
  40369a:	f2 0f 58 c2          	addsd  %xmm2,%xmm0
  40369e:	f2 0f 2c c8          	cvttsd2si %xmm0,%ecx
  4036a2:	89 c8                	mov    %ecx,%eax
  4036a4:	c1 f9 1f             	sar    $0x1f,%ecx
  4036a7:	f7 ed                	imul   %ebp
  4036a9:	8b 05 f1 81 20 00    	mov    0x2081f1(%rip),%eax        # 60b8a0 <width>
  4036af:	c1 fa 06             	sar    $0x6,%edx
  4036b2:	29 ca                	sub    %ecx,%edx
  4036b4:	89 c1                	mov    %eax,%ecx
  4036b6:	c1 e9 1f             	shr    $0x1f,%ecx
  4036b9:	01 c1                	add    %eax,%ecx
  4036bb:	d1 f9                	sar    %ecx
  4036bd:	8d 0c 0a             	lea    (%rdx,%rcx,1),%ecx
  4036c0:	48 8b 15 f1 a7 20 00 	mov    0x20a7f1(%rip),%rdx        # 60deb8 <gc>
  4036c7:	e8 6c e6 ff ff       	callq  401d38 <XDrawString@plt>
  4036cc:	f2 0f 10 54 24 10    	movsd  0x10(%rsp),%xmm2
  4036d2:	8b 05 cc 81 20 00    	mov    0x2081cc(%rip),%eax        # 60b8a4 <height>
  4036d8:	f2 0f 10 05 10 9b 20 	movsd  0x209b10(%rip),%xmm0        # 60d1f0 <temp.10226+0x10>
  4036df:	00 
  4036e0:	f2 0f 10 0d 10 9b 20 	movsd  0x209b10(%rip),%xmm1        # 60d1f8 <temp.10226+0x18>
  4036e7:	00 
  4036e8:	f2 0f 59 c2          	mulsd  %xmm2,%xmm0
  4036ec:	f2 0f 10 1d 24 9b 20 	movsd  0x209b24(%rip),%xmm3        # 60d218 <temp.10226+0x38>
  4036f3:	00 
  4036f4:	41 89 c0             	mov    %eax,%r8d
  4036f7:	41 c1 e8 1f          	shr    $0x1f,%r8d
  4036fb:	41 01 c0             	add    %eax,%r8d
  4036fe:	8b 05 9c 81 20 00    	mov    0x20819c(%rip),%eax        # 60b8a0 <width>
  403704:	f2 0f 58 c1          	addsd  %xmm1,%xmm0
  403708:	41 d1 f8             	sar    %r8d
  40370b:	f2 0f 59 0d 55 67 00 	mulsd  0x6755(%rip),%xmm1        # 409e68 <__dso_handle+0x240>
  403712:	00 
  403713:	41 89 c1             	mov    %eax,%r9d
  403716:	41 c1 e9 1f          	shr    $0x1f,%r9d
  40371a:	f2 0f 59 05 46 67 00 	mulsd  0x6746(%rip),%xmm0        # 409e68 <__dso_handle+0x240>
  403721:	00 
  403722:	41 01 c1             	add    %eax,%r9d
  403725:	41 d1 f9             	sar    %r9d
  403728:	f2 0f 58 ca          	addsd  %xmm2,%xmm1
  40372c:	f2 0f 58 c2          	addsd  %xmm2,%xmm0
  403730:	f2 0f 2c c8          	cvttsd2si %xmm0,%ecx
  403734:	66 0f 28 c3          	movapd %xmm3,%xmm0
  403738:	f2 0f 59 05 28 67 00 	mulsd  0x6728(%rip),%xmm0        # 409e68 <__dso_handle+0x240>
  40373f:	00 
  403740:	f2 0f 58 c2          	addsd  %xmm2,%xmm0
  403744:	89 c8                	mov    %ecx,%eax
  403746:	c1 f9 1f             	sar    $0x1f,%ecx
  403749:	f7 ed                	imul   %ebp
  40374b:	89 d7                	mov    %edx,%edi
  40374d:	c1 ff 06             	sar    $0x6,%edi
  403750:	29 cf                	sub    %ecx,%edi
  403752:	f2 0f 2c c8          	cvttsd2si %xmm0,%ecx
  403756:	f2 0f 10 05 b2 9a 20 	movsd  0x209ab2(%rip),%xmm0        # 60d210 <temp.10226+0x30>
  40375d:	00 
  40375e:	f2 0f 59 c2          	mulsd  %xmm2,%xmm0
  403762:	f2 0f 58 c3          	addsd  %xmm3,%xmm0
  403766:	89 c8                	mov    %ecx,%eax
  403768:	f2 0f 59 05 f8 66 00 	mulsd  0x66f8(%rip),%xmm0        # 409e68 <__dso_handle+0x240>
  40376f:	00 
  403770:	c1 f9 1f             	sar    $0x1f,%ecx
  403773:	f7 ed                	imul   %ebp
  403775:	89 d6                	mov    %edx,%esi
  403777:	c1 fe 06             	sar    $0x6,%esi
  40377a:	29 ce                	sub    %ecx,%esi
  40377c:	f2 0f 2c c9          	cvttsd2si %xmm1,%ecx
  403780:	f2 0f 58 c2          	addsd  %xmm2,%xmm0
  403784:	f2 44 0f 2c d0       	cvttsd2si %xmm0,%r10d
  403789:	89 c8                	mov    %ecx,%eax
  40378b:	c1 f9 1f             	sar    $0x1f,%ecx
  40378e:	f7 ed                	imul   %ebp
  403790:	c1 fa 06             	sar    $0x6,%edx
  403793:	29 ca                	sub    %ecx,%edx
  403795:	44 89 d0             	mov    %r10d,%eax
  403798:	41 c1 fa 1f          	sar    $0x1f,%r10d
  40379c:	42 8d 0c 0a          	lea    (%rdx,%r9,1),%ecx
  4037a0:	46 8d 0c 0f          	lea    (%rdi,%r9,1),%r9d
  4037a4:	48 8b 3d b5 a6 20 00 	mov    0x20a6b5(%rip),%rdi        # 60de60 <display>
  4037ab:	f7 ed                	imul   %ebp
  4037ad:	44 89 c0             	mov    %r8d,%eax
  4037b0:	41 29 f0             	sub    %esi,%r8d
  4037b3:	48 8b 35 c6 a6 20 00 	mov    0x20a6c6(%rip),%rsi        # 60de80 <window>
  4037ba:	c1 fa 06             	sar    $0x6,%edx
  4037bd:	44 29 d2             	sub    %r10d,%edx
  4037c0:	29 d0                	sub    %edx,%eax
  4037c2:	48 8b 15 ef a6 20 00 	mov    0x20a6ef(%rip),%rdx        # 60deb8 <gc>
  4037c9:	89 04 24             	mov    %eax,(%rsp)
  4037cc:	e8 77 e7 ff ff       	callq  401f48 <XDrawLine@plt>
  4037d1:	f2 0f 10 44 24 28    	movsd  0x28(%rsp),%xmm0
  4037d7:	8b 05 c7 80 20 00    	mov    0x2080c7(%rip),%eax        # 60b8a4 <height>
  4037dd:	f2 0f 10 54 24 10    	movsd  0x10(%rsp),%xmm2
  4037e3:	48 8b 3d 76 a6 20 00 	mov    0x20a676(%rip),%rdi        # 60de60 <display>
  4037ea:	f2 0f 59 05 1e 9a 20 	mulsd  0x209a1e(%rip),%xmm0        # 60d210 <temp.10226+0x30>
  4037f1:	00 
  4037f2:	41 b9 67 a0 40 00    	mov    $0x40a067,%r9d
  4037f8:	c7 04 24 01 00 00 00 	movl   $0x1,(%rsp)
  4037ff:	41 89 c0             	mov    %eax,%r8d
  403802:	41 c1 e8 1f          	shr    $0x1f,%r8d
  403806:	41 01 c0             	add    %eax,%r8d
  403809:	41 d1 f8             	sar    %r8d
  40380c:	f2 0f 59 c2          	mulsd  %xmm2,%xmm0
  403810:	f2 0f 58 05 00 9a 20 	addsd  0x209a00(%rip),%xmm0        # 60d218 <temp.10226+0x38>
  403817:	00 
  403818:	f2 0f 59 05 48 66 00 	mulsd  0x6648(%rip),%xmm0        # 409e68 <__dso_handle+0x240>
  40381f:	00 
  403820:	f2 0f 58 c2          	addsd  %xmm2,%xmm0
  403824:	f2 0f 2c c8          	cvttsd2si %xmm0,%ecx
  403828:	f2 0f 10 44 24 28    	movsd  0x28(%rsp),%xmm0
  40382e:	f2 0f 59 05 ba 99 20 	mulsd  0x2099ba(%rip),%xmm0        # 60d1f0 <temp.10226+0x10>
  403835:	00 
  403836:	f2 0f 59 c2          	mulsd  %xmm2,%xmm0
  40383a:	89 c8                	mov    %ecx,%eax
  40383c:	c1 f9 1f             	sar    $0x1f,%ecx
  40383f:	f7 ed                	imul   %ebp
  403841:	f2 0f 58 05 af 99 20 	addsd  0x2099af(%rip),%xmm0        # 60d1f8 <temp.10226+0x18>
  403848:	00 
  403849:	89 d6                	mov    %edx,%esi
  40384b:	c1 fe 06             	sar    $0x6,%esi
  40384e:	29 ce                	sub    %ecx,%esi
  403850:	41 29 f0             	sub    %esi,%r8d
  403853:	48 8b 35 26 a6 20 00 	mov    0x20a626(%rip),%rsi        # 60de80 <window>
  40385a:	f2 0f 59 05 06 66 00 	mulsd  0x6606(%rip),%xmm0        # 409e68 <__dso_handle+0x240>
  403861:	00 
  403862:	f2 0f 58 c2          	addsd  %xmm2,%xmm0
  403866:	f2 0f 2c c8          	cvttsd2si %xmm0,%ecx
  40386a:	89 c8                	mov    %ecx,%eax
  40386c:	c1 f9 1f             	sar    $0x1f,%ecx
  40386f:	f7 ed                	imul   %ebp
  403871:	8b 05 29 80 20 00    	mov    0x208029(%rip),%eax        # 60b8a0 <width>
  403877:	c1 fa 06             	sar    $0x6,%edx
  40387a:	29 ca                	sub    %ecx,%edx
  40387c:	89 c1                	mov    %eax,%ecx
  40387e:	c1 e9 1f             	shr    $0x1f,%ecx
  403881:	01 c1                	add    %eax,%ecx
  403883:	d1 f9                	sar    %ecx
  403885:	8d 0c 0a             	lea    (%rdx,%rcx,1),%ecx
  403888:	48 8b 15 29 a6 20 00 	mov    0x20a629(%rip),%rdx        # 60deb8 <gc>
  40388f:	e8 a4 e4 ff ff       	callq  401d38 <XDrawString@plt>
  403894:	4c 89 e7             	mov    %r12,%rdi
  403897:	be e0 d1 60 00       	mov    $0x60d1e0,%esi
  40389c:	e8 df 20 00 00       	callq  405980 <T_copy>
  4038a1:	48 8b 15 98 a5 20 00 	mov    0x20a598(%rip),%rdx        # 60de40 <foreground>
  4038a8:	48 8b 35 09 a6 20 00 	mov    0x20a609(%rip),%rsi        # 60deb8 <gc>
  4038af:	48 8b 3d aa a5 20 00 	mov    0x20a5aa(%rip),%rdi        # 60de60 <display>
  4038b6:	e8 ad e6 ff ff       	callq  401f68 <XSetForeground@plt>
  4038bb:	48 8b 35 f6 a5 20 00 	mov    0x20a5f6(%rip),%rsi        # 60deb8 <gc>
  4038c2:	48 8b 3d 97 a5 20 00 	mov    0x20a597(%rip),%rdi        # 60de60 <display>
  4038c9:	31 c9                	xor    %ecx,%ecx
  4038cb:	41 b9 01 00 00 00    	mov    $0x1,%r9d
  4038d1:	41 b8 01 00 00 00    	mov    $0x1,%r8d
  4038d7:	ba 01 00 00 00       	mov    $0x1,%edx
  4038dc:	e8 67 e7 ff ff       	callq  402048 <XSetLineAttributes@plt>
  4038e1:	f2 0f 10 54 24 10    	movsd  0x10(%rsp),%xmm2
  4038e7:	8b 05 b7 7f 20 00    	mov    0x207fb7(%rip),%eax        # 60b8a4 <height>
  4038ed:	f2 41 0f 10 04 24    	movsd  (%r12),%xmm0
  4038f3:	f2 41 0f 10 4c 24 18 	movsd  0x18(%r12),%xmm1
  4038fa:	f2 0f 59 c2          	mulsd  %xmm2,%xmm0
  4038fe:	41 89 c0             	mov    %eax,%r8d
  403901:	41 c1 e8 1f          	shr    $0x1f,%r8d
  403905:	41 01 c0             	add    %eax,%r8d
  403908:	8b 05 92 7f 20 00    	mov    0x207f92(%rip),%eax        # 60b8a0 <width>
  40390e:	41 d1 f8             	sar    %r8d
  403911:	f2 0f 58 c1          	addsd  %xmm1,%xmm0
  403915:	41 89 c1             	mov    %eax,%r9d
  403918:	f2 0f 59 0d 48 65 00 	mulsd  0x6548(%rip),%xmm1        # 409e68 <__dso_handle+0x240>
  40391f:	00 
  403920:	41 c1 e9 1f          	shr    $0x1f,%r9d
  403924:	41 01 c1             	add    %eax,%r9d
  403927:	f2 0f 59 05 39 65 00 	mulsd  0x6539(%rip),%xmm0        # 409e68 <__dso_handle+0x240>
  40392e:	00 
  40392f:	41 d1 f9             	sar    %r9d
  403932:	f2 0f 58 ca          	addsd  %xmm2,%xmm1
  403936:	f2 0f 58 c2          	addsd  %xmm2,%xmm0
  40393a:	f2 0f 2c c8          	cvttsd2si %xmm0,%ecx
  40393e:	f2 41 0f 10 45 18    	movsd  0x18(%r13),%xmm0
  403944:	f2 0f 59 05 1c 65 00 	mulsd  0x651c(%rip),%xmm0        # 409e68 <__dso_handle+0x240>
  40394b:	00 
  40394c:	f2 0f 58 c2          	addsd  %xmm2,%xmm0
  403950:	89 c8                	mov    %ecx,%eax
  403952:	c1 f9 1f             	sar    $0x1f,%ecx
  403955:	f7 ed                	imul   %ebp
  403957:	89 d7                	mov    %edx,%edi
  403959:	c1 ff 06             	sar    $0x6,%edi
  40395c:	29 cf                	sub    %ecx,%edi
  40395e:	f2 0f 2c c8          	cvttsd2si %xmm0,%ecx
  403962:	f2 41 0f 10 44 24 40 	movsd  0x40(%r12),%xmm0
  403969:	f2 0f 59 c2          	mulsd  %xmm2,%xmm0
  40396d:	f2 0f 58 43 18       	addsd  0x18(%rbx),%xmm0
  403972:	89 c8                	mov    %ecx,%eax
  403974:	c1 f9 1f             	sar    $0x1f,%ecx
  403977:	f7 ed                	imul   %ebp
  403979:	f2 0f 59 05 e7 64 00 	mulsd  0x64e7(%rip),%xmm0        # 409e68 <__dso_handle+0x240>
  403980:	00 
  403981:	89 d6                	mov    %edx,%esi
  403983:	c1 fe 06             	sar    $0x6,%esi
  403986:	29 ce                	sub    %ecx,%esi
  403988:	f2 0f 2c c9          	cvttsd2si %xmm1,%ecx
  40398c:	f2 0f 58 c2          	addsd  %xmm2,%xmm0
  403990:	f2 44 0f 2c d0       	cvttsd2si %xmm0,%r10d
  403995:	89 c8                	mov    %ecx,%eax
  403997:	c1 f9 1f             	sar    $0x1f,%ecx
  40399a:	f7 ed                	imul   %ebp
  40399c:	c1 fa 06             	sar    $0x6,%edx
  40399f:	29 ca                	sub    %ecx,%edx
  4039a1:	44 89 d0             	mov    %r10d,%eax
  4039a4:	42 8d 0c 0a          	lea    (%rdx,%r9,1),%ecx
  4039a8:	41 c1 fa 1f          	sar    $0x1f,%r10d
  4039ac:	f7 ed                	imul   %ebp
  4039ae:	44 89 c0             	mov    %r8d,%eax
  4039b1:	46 8d 0c 0f          	lea    (%rdi,%r9,1),%r9d
  4039b5:	41 29 f0             	sub    %esi,%r8d
  4039b8:	48 8b 3d a1 a4 20 00 	mov    0x20a4a1(%rip),%rdi        # 60de60 <display>
  4039bf:	48 8b 35 ba a4 20 00 	mov    0x20a4ba(%rip),%rsi        # 60de80 <window>
  4039c6:	c1 fa 06             	sar    $0x6,%edx
  4039c9:	44 29 d2             	sub    %r10d,%edx
  4039cc:	29 d0                	sub    %edx,%eax
  4039ce:	48 8b 15 e3 a4 20 00 	mov    0x20a4e3(%rip),%rdx        # 60deb8 <gc>
  4039d5:	89 04 24             	mov    %eax,(%rsp)
  4039d8:	e8 6b e5 ff ff       	callq  401f48 <XDrawLine@plt>
  4039dd:	f2 0f 10 44 24 28    	movsd  0x28(%rsp),%xmm0
  4039e3:	8b 05 bb 7e 20 00    	mov    0x207ebb(%rip),%eax        # 60b8a4 <height>
  4039e9:	f2 0f 10 54 24 10    	movsd  0x10(%rsp),%xmm2
  4039ef:	48 8b 3d 6a a4 20 00 	mov    0x20a46a(%rip),%rdi        # 60de60 <display>
  4039f6:	f2 41 0f 59 44 24 40 	mulsd  0x40(%r12),%xmm0
  4039fd:	41 b9 97 a0 40 00    	mov    $0x40a097,%r9d
  403a03:	41 89 c0             	mov    %eax,%r8d
  403a06:	41 c1 e8 1f          	shr    $0x1f,%r8d
  403a0a:	41 01 c0             	add    %eax,%r8d
  403a0d:	41 d1 f8             	sar    %r8d
  403a10:	f2 0f 59 c2          	mulsd  %xmm2,%xmm0
  403a14:	f2 0f 58 43 18       	addsd  0x18(%rbx),%xmm0
  403a19:	c7 04 24 01 00 00 00 	movl   $0x1,(%rsp)
  403a20:	f2 0f 59 05 40 64 00 	mulsd  0x6440(%rip),%xmm0        # 409e68 <__dso_handle+0x240>
  403a27:	00 
  403a28:	f2 0f 58 c2          	addsd  %xmm2,%xmm0
  403a2c:	f2 0f 2c c8          	cvttsd2si %xmm0,%ecx
  403a30:	f2 0f 10 44 24 28    	movsd  0x28(%rsp),%xmm0
  403a36:	f2 41 0f 59 04 24    	mulsd  (%r12),%xmm0
  403a3c:	f2 0f 59 c2          	mulsd  %xmm2,%xmm0
  403a40:	89 c8                	mov    %ecx,%eax
  403a42:	c1 f9 1f             	sar    $0x1f,%ecx
  403a45:	f7 ed                	imul   %ebp
  403a47:	f2 41 0f 58 44 24 18 	addsd  0x18(%r12),%xmm0
  403a4e:	89 d6                	mov    %edx,%esi
  403a50:	c1 fe 06             	sar    $0x6,%esi
  403a53:	29 ce                	sub    %ecx,%esi
  403a55:	f2 0f 59 05 0b 64 00 	mulsd  0x640b(%rip),%xmm0        # 409e68 <__dso_handle+0x240>
  403a5c:	00 
  403a5d:	f2 0f 58 c2          	addsd  %xmm2,%xmm0
  403a61:	f2 0f 2c c8          	cvttsd2si %xmm0,%ecx
  403a65:	89 c8                	mov    %ecx,%eax
  403a67:	f7 ed                	imul   %ebp
  403a69:	8b 05 31 7e 20 00    	mov    0x207e31(%rip),%eax        # 60b8a0 <width>
  403a6f:	c1 fa 06             	sar    $0x6,%edx
  403a72:	c1 f9 1f             	sar    $0x1f,%ecx
  403a75:	41 29 f0             	sub    %esi,%r8d
  403a78:	29 ca                	sub    %ecx,%edx
  403a7a:	89 c1                	mov    %eax,%ecx
  403a7c:	48 8b 35 fd a3 20 00 	mov    0x20a3fd(%rip),%rsi        # 60de80 <window>
  403a83:	c1 e9 1f             	shr    $0x1f,%ecx
  403a86:	01 c1                	add    %eax,%ecx
  403a88:	d1 f9                	sar    %ecx
  403a8a:	8d 0c 0a             	lea    (%rdx,%rcx,1),%ecx
  403a8d:	48 8b 15 24 a4 20 00 	mov    0x20a424(%rip),%rdx        # 60deb8 <gc>
  403a94:	e8 9f e2 ff ff       	callq  401d38 <XDrawString@plt>
  403a99:	f2 0f 10 54 24 10    	movsd  0x10(%rsp),%xmm2
  403a9f:	8b 05 ff 7d 20 00    	mov    0x207dff(%rip),%eax        # 60b8a4 <height>
  403aa5:	f2 41 0f 10 44 24 08 	movsd  0x8(%r12),%xmm0
  403aac:	f2 41 0f 10 4c 24 18 	movsd  0x18(%r12),%xmm1
  403ab3:	f2 0f 59 c2          	mulsd  %xmm2,%xmm0
  403ab7:	41 89 c0             	mov    %eax,%r8d
  403aba:	41 c1 e8 1f          	shr    $0x1f,%r8d
  403abe:	41 01 c0             	add    %eax,%r8d
  403ac1:	8b 05 d9 7d 20 00    	mov    0x207dd9(%rip),%eax        # 60b8a0 <width>
  403ac7:	41 d1 f8             	sar    %r8d
  403aca:	f2 0f 58 c1          	addsd  %xmm1,%xmm0
  403ace:	41 89 c1             	mov    %eax,%r9d
  403ad1:	f2 0f 59 0d 8f 63 00 	mulsd  0x638f(%rip),%xmm1        # 409e68 <__dso_handle+0x240>
  403ad8:	00 
  403ad9:	41 c1 e9 1f          	shr    $0x1f,%r9d
  403add:	41 01 c1             	add    %eax,%r9d
  403ae0:	f2 0f 59 05 80 63 00 	mulsd  0x6380(%rip),%xmm0        # 409e68 <__dso_handle+0x240>
  403ae7:	00 
  403ae8:	41 d1 f9             	sar    %r9d
  403aeb:	f2 0f 58 ca          	addsd  %xmm2,%xmm1
  403aef:	f2 0f 58 c2          	addsd  %xmm2,%xmm0
  403af3:	f2 0f 2c c8          	cvttsd2si %xmm0,%ecx
  403af7:	f2 41 0f 10 45 18    	movsd  0x18(%r13),%xmm0
  403afd:	f2 0f 59 05 63 63 00 	mulsd  0x6363(%rip),%xmm0        # 409e68 <__dso_handle+0x240>
  403b04:	00 
  403b05:	f2 0f 58 c2          	addsd  %xmm2,%xmm0
  403b09:	89 c8                	mov    %ecx,%eax
  403b0b:	c1 f9 1f             	sar    $0x1f,%ecx
  403b0e:	f7 ed                	imul   %ebp
  403b10:	89 d7                	mov    %edx,%edi
  403b12:	c1 ff 06             	sar    $0x6,%edi
  403b15:	29 cf                	sub    %ecx,%edi
  403b17:	f2 0f 2c c8          	cvttsd2si %xmm0,%ecx
  403b1b:	f2 0f 10 43 08       	movsd  0x8(%rbx),%xmm0
  403b20:	f2 0f 59 c2          	mulsd  %xmm2,%xmm0
  403b24:	f2 0f 58 43 18       	addsd  0x18(%rbx),%xmm0
  403b29:	89 c8                	mov    %ecx,%eax
  403b2b:	c1 f9 1f             	sar    $0x1f,%ecx
  403b2e:	f7 ed                	imul   %ebp
  403b30:	f2 0f 59 05 30 63 00 	mulsd  0x6330(%rip),%xmm0        # 409e68 <__dso_handle+0x240>
  403b37:	00 
  403b38:	89 d6                	mov    %edx,%esi
  403b3a:	c1 fe 06             	sar    $0x6,%esi
  403b3d:	29 ce                	sub    %ecx,%esi
  403b3f:	f2 0f 2c c9          	cvttsd2si %xmm1,%ecx
  403b43:	f2 0f 58 c2          	addsd  %xmm2,%xmm0
  403b47:	f2 44 0f 2c d0       	cvttsd2si %xmm0,%r10d
  403b4c:	89 c8                	mov    %ecx,%eax
  403b4e:	c1 f9 1f             	sar    $0x1f,%ecx
  403b51:	f7 ed                	imul   %ebp
  403b53:	c1 fa 06             	sar    $0x6,%edx
  403b56:	29 ca                	sub    %ecx,%edx
  403b58:	44 89 d0             	mov    %r10d,%eax
  403b5b:	42 8d 0c 0a          	lea    (%rdx,%r9,1),%ecx
  403b5f:	41 c1 fa 1f          	sar    $0x1f,%r10d
  403b63:	f7 ed                	imul   %ebp
  403b65:	44 89 c0             	mov    %r8d,%eax
  403b68:	46 8d 0c 0f          	lea    (%rdi,%r9,1),%r9d
  403b6c:	41 29 f0             	sub    %esi,%r8d
  403b6f:	48 8b 3d ea a2 20 00 	mov    0x20a2ea(%rip),%rdi        # 60de60 <display>
  403b76:	48 8b 35 03 a3 20 00 	mov    0x20a303(%rip),%rsi        # 60de80 <window>
  403b7d:	c1 fa 06             	sar    $0x6,%edx
  403b80:	44 29 d2             	sub    %r10d,%edx
  403b83:	29 d0                	sub    %edx,%eax
  403b85:	48 8b 15 2c a3 20 00 	mov    0x20a32c(%rip),%rdx        # 60deb8 <gc>
  403b8c:	89 04 24             	mov    %eax,(%rsp)
  403b8f:	e8 b4 e3 ff ff       	callq  401f48 <XDrawLine@plt>
  403b94:	f2 0f 10 44 24 28    	movsd  0x28(%rsp),%xmm0
  403b9a:	8b 05 04 7d 20 00    	mov    0x207d04(%rip),%eax        # 60b8a4 <height>
  403ba0:	f2 0f 10 54 24 10    	movsd  0x10(%rsp),%xmm2
  403ba6:	48 8b 3d b3 a2 20 00 	mov    0x20a2b3(%rip),%rdi        # 60de60 <display>
  403bad:	f2 0f 59 43 08       	mulsd  0x8(%rbx),%xmm0
  403bb2:	41 b9 21 a3 40 00    	mov    $0x40a321,%r9d
  403bb8:	41 89 c0             	mov    %eax,%r8d
  403bbb:	41 c1 e8 1f          	shr    $0x1f,%r8d
  403bbf:	41 01 c0             	add    %eax,%r8d
  403bc2:	41 d1 f8             	sar    %r8d
  403bc5:	f2 0f 59 c2          	mulsd  %xmm2,%xmm0
  403bc9:	f2 0f 58 43 18       	addsd  0x18(%rbx),%xmm0
  403bce:	c7 04 24 01 00 00 00 	movl   $0x1,(%rsp)
  403bd5:	f2 0f 59 05 8b 62 00 	mulsd  0x628b(%rip),%xmm0        # 409e68 <__dso_handle+0x240>
  403bdc:	00 
  403bdd:	f2 0f 58 c2          	addsd  %xmm2,%xmm0
  403be1:	f2 0f 2c c8          	cvttsd2si %xmm0,%ecx
  403be5:	f2 0f 10 44 24 28    	movsd  0x28(%rsp),%xmm0
  403beb:	f2 41 0f 59 44 24 08 	mulsd  0x8(%r12),%xmm0
  403bf2:	f2 0f 59 c2          	mulsd  %xmm2,%xmm0
  403bf6:	89 c8                	mov    %ecx,%eax
  403bf8:	c1 f9 1f             	sar    $0x1f,%ecx
  403bfb:	f7 ed                	imul   %ebp
  403bfd:	f2 41 0f 58 44 24 18 	addsd  0x18(%r12),%xmm0
  403c04:	89 d6                	mov    %edx,%esi
  403c06:	c1 fe 06             	sar    $0x6,%esi
  403c09:	29 ce                	sub    %ecx,%esi
  403c0b:	41 29 f0             	sub    %esi,%r8d
  403c0e:	48 8b 35 6b a2 20 00 	mov    0x20a26b(%rip),%rsi        # 60de80 <window>
  403c15:	f2 0f 59 05 4b 62 00 	mulsd  0x624b(%rip),%xmm0        # 409e68 <__dso_handle+0x240>
  403c1c:	00 
  403c1d:	f2 0f 58 c2          	addsd  %xmm2,%xmm0
  403c21:	f2 0f 2c c8          	cvttsd2si %xmm0,%ecx
  403c25:	89 c8                	mov    %ecx,%eax
  403c27:	c1 f9 1f             	sar    $0x1f,%ecx
  403c2a:	f7 ed                	imul   %ebp
  403c2c:	8b 05 6e 7c 20 00    	mov    0x207c6e(%rip),%eax        # 60b8a0 <width>
  403c32:	c1 fa 06             	sar    $0x6,%edx
  403c35:	29 ca                	sub    %ecx,%edx
  403c37:	89 c1                	mov    %eax,%ecx
  403c39:	c1 e9 1f             	shr    $0x1f,%ecx
  403c3c:	01 c1                	add    %eax,%ecx
  403c3e:	d1 f9                	sar    %ecx
  403c40:	8d 0c 0a             	lea    (%rdx,%rcx,1),%ecx
  403c43:	48 8b 15 6e a2 20 00 	mov    0x20a26e(%rip),%rdx        # 60deb8 <gc>
  403c4a:	e8 e9 e0 ff ff       	callq  401d38 <XDrawString@plt>
  403c4f:	f2 0f 10 54 24 10    	movsd  0x10(%rsp),%xmm2
  403c55:	8b 05 49 7c 20 00    	mov    0x207c49(%rip),%eax        # 60b8a4 <height>
  403c5b:	f2 41 0f 10 44 24 10 	movsd  0x10(%r12),%xmm0
  403c62:	f2 41 0f 10 4c 24 18 	movsd  0x18(%r12),%xmm1
  403c69:	f2 0f 59 c2          	mulsd  %xmm2,%xmm0
  403c6d:	41 89 c0             	mov    %eax,%r8d
  403c70:	41 c1 e8 1f          	shr    $0x1f,%r8d
  403c74:	41 01 c0             	add    %eax,%r8d
  403c77:	8b 05 23 7c 20 00    	mov    0x207c23(%rip),%eax        # 60b8a0 <width>
  403c7d:	41 d1 f8             	sar    %r8d
  403c80:	f2 0f 58 c1          	addsd  %xmm1,%xmm0
  403c84:	41 89 c1             	mov    %eax,%r9d
  403c87:	f2 0f 59 0d d9 61 00 	mulsd  0x61d9(%rip),%xmm1        # 409e68 <__dso_handle+0x240>
  403c8e:	00 
  403c8f:	41 c1 e9 1f          	shr    $0x1f,%r9d
  403c93:	41 01 c1             	add    %eax,%r9d
  403c96:	f2 0f 59 05 ca 61 00 	mulsd  0x61ca(%rip),%xmm0        # 409e68 <__dso_handle+0x240>
  403c9d:	00 
  403c9e:	41 d1 f9             	sar    %r9d
  403ca1:	f2 0f 58 ca          	addsd  %xmm2,%xmm1
  403ca5:	f2 0f 58 c2          	addsd  %xmm2,%xmm0
  403ca9:	f2 0f 2c c8          	cvttsd2si %xmm0,%ecx
  403cad:	f2 41 0f 10 45 18    	movsd  0x18(%r13),%xmm0
  403cb3:	f2 0f 59 05 ad 61 00 	mulsd  0x61ad(%rip),%xmm0        # 409e68 <__dso_handle+0x240>
  403cba:	00 
  403cbb:	f2 0f 58 c2          	addsd  %xmm2,%xmm0
  403cbf:	89 c8                	mov    %ecx,%eax
  403cc1:	c1 f9 1f             	sar    $0x1f,%ecx
  403cc4:	f7 ed                	imul   %ebp
  403cc6:	89 d7                	mov    %edx,%edi
  403cc8:	c1 ff 06             	sar    $0x6,%edi
  403ccb:	29 cf                	sub    %ecx,%edi
  403ccd:	f2 0f 2c c8          	cvttsd2si %xmm0,%ecx
  403cd1:	f2 0f 10 43 10       	movsd  0x10(%rbx),%xmm0
  403cd6:	f2 0f 59 c2          	mulsd  %xmm2,%xmm0
  403cda:	f2 0f 58 43 18       	addsd  0x18(%rbx),%xmm0
  403cdf:	89 c8                	mov    %ecx,%eax
  403ce1:	c1 f9 1f             	sar    $0x1f,%ecx
  403ce4:	f7 ed                	imul   %ebp
  403ce6:	f2 0f 59 05 7a 61 00 	mulsd  0x617a(%rip),%xmm0        # 409e68 <__dso_handle+0x240>
  403ced:	00 
  403cee:	89 d6                	mov    %edx,%esi
  403cf0:	c1 fe 06             	sar    $0x6,%esi
  403cf3:	29 ce                	sub    %ecx,%esi
  403cf5:	f2 0f 2c c9          	cvttsd2si %xmm1,%ecx
  403cf9:	f2 0f 58 c2          	addsd  %xmm2,%xmm0
  403cfd:	f2 44 0f 2c d0       	cvttsd2si %xmm0,%r10d
  403d02:	89 c8                	mov    %ecx,%eax
  403d04:	c1 f9 1f             	sar    $0x1f,%ecx
  403d07:	f7 ed                	imul   %ebp
  403d09:	c1 fa 06             	sar    $0x6,%edx
  403d0c:	29 ca                	sub    %ecx,%edx
  403d0e:	44 89 d0             	mov    %r10d,%eax
  403d11:	42 8d 0c 0a          	lea    (%rdx,%r9,1),%ecx
  403d15:	46 8d 0c 0f          	lea    (%rdi,%r9,1),%r9d
  403d19:	f7 ed                	imul   %ebp
  403d1b:	41 c1 fa 1f          	sar    $0x1f,%r10d
  403d1f:	44 89 c0             	mov    %r8d,%eax
  403d22:	48 8b 3d 37 a1 20 00 	mov    0x20a137(%rip),%rdi        # 60de60 <display>
  403d29:	41 29 f0             	sub    %esi,%r8d
  403d2c:	48 8b 35 4d a1 20 00 	mov    0x20a14d(%rip),%rsi        # 60de80 <window>
  403d33:	c1 fa 06             	sar    $0x6,%edx
  403d36:	44 29 d2             	sub    %r10d,%edx
  403d39:	29 d0                	sub    %edx,%eax
  403d3b:	48 8b 15 76 a1 20 00 	mov    0x20a176(%rip),%rdx        # 60deb8 <gc>
  403d42:	89 04 24             	mov    %eax,(%rsp)
  403d45:	e8 fe e1 ff ff       	callq  401f48 <XDrawLine@plt>
  403d4a:	f2 0f 10 44 24 28    	movsd  0x28(%rsp),%xmm0
  403d50:	8b 05 4e 7b 20 00    	mov    0x207b4e(%rip),%eax        # 60b8a4 <height>
  403d56:	f2 0f 10 54 24 10    	movsd  0x10(%rsp),%xmm2
  403d5c:	41 b9 67 a0 40 00    	mov    $0x40a067,%r9d
  403d62:	f2 0f 59 43 10       	mulsd  0x10(%rbx),%xmm0
  403d67:	41 89 c0             	mov    %eax,%r8d
  403d6a:	41 c1 e8 1f          	shr    $0x1f,%r8d
  403d6e:	41 01 c0             	add    %eax,%r8d
  403d71:	41 d1 f8             	sar    %r8d
  403d74:	f2 0f 59 c2          	mulsd  %xmm2,%xmm0
  403d78:	f2 0f 58 43 18       	addsd  0x18(%rbx),%xmm0
  403d7d:	c7 04 24 01 00 00 00 	movl   $0x1,(%rsp)
  403d84:	f2 0f 59 05 dc 60 00 	mulsd  0x60dc(%rip),%xmm0        # 409e68 <__dso_handle+0x240>
  403d8b:	00 
  403d8c:	f2 0f 58 c2          	addsd  %xmm2,%xmm0
  403d90:	f2 0f 2c c8          	cvttsd2si %xmm0,%ecx
  403d94:	f2 0f 10 44 24 28    	movsd  0x28(%rsp),%xmm0
  403d9a:	f2 41 0f 59 44 24 10 	mulsd  0x10(%r12),%xmm0
  403da1:	f2 0f 59 c2          	mulsd  %xmm2,%xmm0
  403da5:	89 c8                	mov    %ecx,%eax
  403da7:	c1 f9 1f             	sar    $0x1f,%ecx
  403daa:	f7 ed                	imul   %ebp
  403dac:	f2 41 0f 58 44 24 18 	addsd  0x18(%r12),%xmm0
  403db3:	89 d7                	mov    %edx,%edi
  403db5:	c1 ff 06             	sar    $0x6,%edi
  403db8:	29 cf                	sub    %ecx,%edi
  403dba:	41 29 f8             	sub    %edi,%r8d
  403dbd:	48 8b 3d 9c a0 20 00 	mov    0x20a09c(%rip),%rdi        # 60de60 <display>
  403dc4:	f2 0f 11 44 24 28    	movsd  %xmm0,0x28(%rsp)
  403dca:	f2 0f 10 05 96 60 00 	movsd  0x6096(%rip),%xmm0        # 409e68 <__dso_handle+0x240>
  403dd1:	00 
  403dd2:	f2 0f 59 44 24 28    	mulsd  0x28(%rsp),%xmm0
  403dd8:	f2 0f 58 d0          	addsd  %xmm0,%xmm2
  403ddc:	f2 0f 2c ca          	cvttsd2si %xmm2,%ecx
  403de0:	f2 0f 11 54 24 28    	movsd  %xmm2,0x28(%rsp)
  403de6:	89 c8                	mov    %ecx,%eax
  403de8:	c1 f9 1f             	sar    $0x1f,%ecx
  403deb:	f7 ed                	imul   %ebp
  403ded:	8b 05 ad 7a 20 00    	mov    0x207aad(%rip),%eax        # 60b8a0 <width>
  403df3:	89 d6                	mov    %edx,%esi
  403df5:	48 8b 15 bc a0 20 00 	mov    0x20a0bc(%rip),%rdx        # 60deb8 <gc>
  403dfc:	c1 fe 06             	sar    $0x6,%esi
  403dff:	29 ce                	sub    %ecx,%esi
  403e01:	89 c1                	mov    %eax,%ecx
  403e03:	c1 e9 1f             	shr    $0x1f,%ecx
  403e06:	01 c1                	add    %eax,%ecx
  403e08:	d1 f9                	sar    %ecx
  403e0a:	8d 0c 0e             	lea    (%rsi,%rcx,1),%ecx
  403e0d:	48 8b 35 6c a0 20 00 	mov    0x20a06c(%rip),%rsi        # 60de80 <window>
  403e14:	e8 1f df ff ff       	callq  401d38 <XDrawString@plt>
  403e19:	48 83 c4 38          	add    $0x38,%rsp
  403e1d:	5b                   	pop    %rbx
  403e1e:	5d                   	pop    %rbp
  403e1f:	41 5c                	pop    %r12
  403e21:	41 5d                	pop    %r13
  403e23:	c3                   	retq   
  403e24:	66 0f 1f 44 00 00    	nopw   0x0(%rax,%rax,1)
  403e2a:	66 0f 1f 44 00 00    	nopw   0x0(%rax,%rax,1)

0000000000403e30 <x_done>:
  403e30:	48 83 ec 08          	sub    $0x8,%rsp
  403e34:	e8 9f e2 ff ff       	callq  4020d8 <XtParent@plt>
  403e39:	48 89 c7             	mov    %rax,%rdi
  403e3c:	e8 97 e2 ff ff       	callq  4020d8 <XtParent@plt>
  403e41:	48 89 c7             	mov    %rax,%rdi
  403e44:	e8 5f e1 ff ff       	callq  401fa8 <XtDestroyWidget@plt>
  403e49:	48 8b 3d 00 a0 20 00 	mov    0x20a000(%rip),%rdi        # 60de50 <persp>
  403e50:	c7 05 16 92 20 00 00 	movl   $0x0,0x209216(%rip)        # 60d070 <persp_on>
  403e57:	00 00 00 
  403e5a:	31 c0                	xor    %eax,%eax
  403e5c:	48 83 c4 08          	add    $0x8,%rsp
  403e60:	e9 0b 27 00 00       	jmpq   406570 <XkwWidgetUnhighlight>
  403e65:	0f 1f 44 00 00       	nopl   0x0(%rax,%rax,1)
  403e6a:	66 0f 1f 44 00 00    	nopw   0x0(%rax,%rax,1)

0000000000403e70 <x_persp_proc>:
  403e70:	48 89 5c 24 d0       	mov    %rbx,-0x30(%rsp)
  403e75:	48 89 6c 24 d8       	mov    %rbp,-0x28(%rsp)
  403e7a:	48 89 fb             	mov    %rdi,%rbx
  403e7d:	4c 89 64 24 e0       	mov    %r12,-0x20(%rsp)
  403e82:	4c 89 6c 24 e8       	mov    %r13,-0x18(%rsp)
  403e87:	4c 89 74 24 f0       	mov    %r14,-0x10(%rsp)
  403e8c:	4c 89 7c 24 f8       	mov    %r15,-0x8(%rsp)
  403e91:	48 83 ec 58          	sub    $0x58,%rsp
  403e95:	8b 15 d5 91 20 00    	mov    0x2091d5(%rip),%edx        # 60d070 <persp_on>
  403e9b:	85 d2                	test   %edx,%edx
  403e9d:	74 23                	je     403ec2 <x_persp_proc+0x52>
  403e9f:	48 8b 5c 24 28       	mov    0x28(%rsp),%rbx
  403ea4:	48 8b 6c 24 30       	mov    0x30(%rsp),%rbp
  403ea9:	4c 8b 64 24 38       	mov    0x38(%rsp),%r12
  403eae:	4c 8b 6c 24 40       	mov    0x40(%rsp),%r13
  403eb3:	4c 8b 74 24 48       	mov    0x48(%rsp),%r14
  403eb8:	4c 8b 7c 24 50       	mov    0x50(%rsp),%r15
  403ebd:	48 83 c4 58          	add    $0x58,%rsp
  403ec1:	c3                   	retq   
  403ec2:	48 8b 3d 87 9f 20 00 	mov    0x209f87(%rip),%rdi        # 60de50 <persp>
  403ec9:	31 c0                	xor    %eax,%eax
  403ecb:	c7 05 9b 91 20 00 01 	movl   $0x1,0x20919b(%rip)        # 60d070 <persp_on>
  403ed2:	00 00 00 
  403ed5:	49 be 18 2d 44 54 fb 	movabs $0x400921fb54442d18,%r14
  403edc:	21 09 40 
  403edf:	49 bd 18 2d 44 54 fb 	movabs $0xc00921fb54442d18,%r13
  403ee6:	21 09 c0 
  403ee9:	bd aa d2 60 00       	mov    $0x60d2aa,%ebp
  403eee:	e8 0d 27 00 00       	callq  406600 <XkwWidgetHighlight>
  403ef3:	b9 51 9c 40 00       	mov    $0x409c51,%ecx
  403ef8:	ba bc 02 00 00       	mov    $0x2bc,%edx
  403efd:	be bc 02 00 00       	mov    $0x2bc,%esi
  403f02:	48 89 df             	mov    %rbx,%rdi
  403f05:	31 c0                	xor    %eax,%eax
  403f07:	31 db                	xor    %ebx,%ebx
  403f09:	e8 82 37 00 00       	callq  407690 <XkwMakePopup>
  403f0e:	48 89 c7             	mov    %rax,%rdi
  403f11:	49 89 c7             	mov    %rax,%r15
  403f14:	31 c0                	xor    %eax,%eax
  403f16:	e8 25 2a 00 00       	callq  406940 <XkwMakeForm>
  403f1b:	4c 89 74 24 20       	mov    %r14,0x20(%rsp)
  403f20:	44 8b 0d 81 79 20 00 	mov    0x207981(%rip),%r9d        # 60b8a8 <Pwidth>
  403f27:	48 89 c7             	mov    %rax,%rdi
  403f2a:	f2 0f 10 54 24 20    	movsd  0x20(%rsp),%xmm2
  403f30:	4c 89 6c 24 20       	mov    %r13,0x20(%rsp)
  403f35:	f2 0f 10 4c 24 20    	movsd  0x20(%rsp),%xmm1
  403f3b:	49 89 c4             	mov    %rax,%r12
  403f3e:	f2 0f 10 05 1a 93 20 	movsd  0x20931a(%rip),%xmm0        # 60d260 <persp_ang>
  403f45:	00 
  403f46:	41 b8 a0 d2 60 00    	mov    $0x60d2a0,%r8d
  403f4c:	b9 90 47 40 00       	mov    $0x404790,%ecx
  403f51:	31 d2                	xor    %edx,%edx
  403f53:	31 f6                	xor    %esi,%esi
  403f55:	b8 03 00 00 00       	mov    $0x3,%eax
  403f5a:	c7 05 3c 93 20 00 52 	movl   $0x20746f52,0x20933c(%rip)        # 60d2a0 <label_rot>
  403f61:	6f 74 20 
  403f64:	66 c7 05 37 93 20 00 	movw   $0x58,0x209337(%rip)        # 60d2a4 <label_rot+0x4>
  403f6b:	58 00 
  403f6d:	c7 05 33 93 20 00 52 	movl   $0x20746f52,0x209333(%rip)        # 60d2aa <label_rot+0xa>
  403f74:	6f 74 20 
  403f77:	66 c7 05 2e 93 20 00 	movw   $0x59,0x20932e(%rip)        # 60d2ae <label_rot+0xe>
  403f7e:	59 00 
  403f80:	c7 05 2a 93 20 00 52 	movl   $0x20746f52,0x20932a(%rip)        # 60d2b4 <label_rot+0x14>
  403f87:	6f 74 20 
  403f8a:	66 c7 05 25 93 20 00 	movw   $0x5a,0x209325(%rip)        # 60d2b8 <label_rot+0x18>
  403f91:	5a 00 
  403f93:	c7 44 24 18 00 00 00 	movl   $0x0,0x18(%rsp)
  403f9a:	00 
  403f9b:	c7 44 24 10 00 00 00 	movl   $0x0,0x10(%rsp)
  403fa2:	00 
  403fa3:	c7 44 24 08 00 00 00 	movl   $0x0,0x8(%rsp)
  403faa:	00 
  403fab:	c7 04 24 00 00 00 00 	movl   $0x0,(%rsp)
  403fb2:	e8 79 2f 00 00       	callq  406f30 <XkwMakeSlider>
  403fb7:	48 89 05 e2 9e 20 00 	mov    %rax,0x209ee2(%rip)        # 60dea0 <slider_persp>
  403fbe:	4c 89 74 24 20       	mov    %r14,0x20(%rsp)
  403fc3:	48 8b 34 dd a0 de 60 	mov    0x60dea0(,%rbx,8),%rsi
  403fca:	00 
  403fcb:	49 89 e8             	mov    %rbp,%r8
  403fce:	f2 0f 10 54 24 20    	movsd  0x20(%rsp),%xmm2
  403fd4:	44 8b 0d cd 78 20 00 	mov    0x2078cd(%rip),%r9d        # 60b8a8 <Pwidth>
  403fdb:	4c 89 6c 24 20       	mov    %r13,0x20(%rsp)
  403fe0:	f2 0f 10 04 dd 68 d2 	movsd  0x60d268(,%rbx,8),%xmm0
  403fe7:	60 00 
  403fe9:	f2 0f 10 4c 24 20    	movsd  0x20(%rsp),%xmm1
  403fef:	31 d2                	xor    %edx,%edx
  403ff1:	b9 90 47 40 00       	mov    $0x404790,%ecx
  403ff6:	4c 89 e7             	mov    %r12,%rdi
  403ff9:	b8 03 00 00 00       	mov    $0x3,%eax
  403ffe:	c7 44 24 18 00 00 00 	movl   $0x0,0x18(%rsp)
  404005:	00 
  404006:	c7 44 24 10 00 00 00 	movl   $0x0,0x10(%rsp)
  40400d:	00 
  40400e:	48 83 c5 0a          	add    $0xa,%rbp
  404012:	c7 44 24 08 00 00 00 	movl   $0x0,0x8(%rsp)
  404019:	00 
  40401a:	c7 04 24 00 00 00 00 	movl   $0x0,(%rsp)
  404021:	e8 0a 2f 00 00       	callq  406f30 <XkwMakeSlider>
  404026:	48 89 04 dd a8 de 60 	mov    %rax,0x60dea8(,%rbx,8)
  40402d:	00 
  40402e:	48 83 c3 01          	add    $0x1,%rbx
  404032:	48 83 fb 02          	cmp    $0x2,%rbx
  404036:	75 86                	jne    403fbe <x_persp_proc+0x14e>
  404038:	48 8b 35 71 9e 20 00 	mov    0x209e71(%rip),%rsi        # 60deb0 <slider_persp+0x10>
  40403f:	4c 89 e7             	mov    %r12,%rdi
  404042:	41 b9 64 00 00 00    	mov    $0x64,%r9d
  404048:	41 b8 5d 9c 40 00    	mov    $0x409c5d,%r8d
  40404e:	b9 70 48 40 00       	mov    $0x404870,%ecx
  404053:	31 d2                	xor    %edx,%edx
  404055:	31 c0                	xor    %eax,%eax
  404057:	c7 04 24 12 00 00 00 	movl   $0x12,(%rsp)
  40405e:	e8 7d 35 00 00       	callq  4075e0 <XkwMakeCommand>
  404063:	48 8b 35 46 9e 20 00 	mov    0x209e46(%rip),%rsi        # 60deb0 <slider_persp+0x10>
  40406a:	48 89 c2             	mov    %rax,%rdx
  40406d:	4c 89 e7             	mov    %r12,%rdi
  404070:	41 b9 64 00 00 00    	mov    $0x64,%r9d
  404076:	41 b8 68 9c 40 00    	mov    $0x409c68,%r8d
  40407c:	b9 70 48 40 00       	mov    $0x404870,%ecx
  404081:	31 c0                	xor    %eax,%eax
  404083:	c7 04 24 12 00 00 00 	movl   $0x12,(%rsp)
  40408a:	e8 51 35 00 00       	callq  4075e0 <XkwMakeCommand>
  40408f:	48 8b 35 1a 9e 20 00 	mov    0x209e1a(%rip),%rsi        # 60deb0 <slider_persp+0x10>
  404096:	48 89 c2             	mov    %rax,%rdx
  404099:	4c 89 e7             	mov    %r12,%rdi
  40409c:	41 b9 64 00 00 00    	mov    $0x64,%r9d
  4040a2:	41 b8 72 9c 40 00    	mov    $0x409c72,%r8d
  4040a8:	b9 70 48 40 00       	mov    $0x404870,%ecx
  4040ad:	31 c0                	xor    %eax,%eax
  4040af:	c7 04 24 12 00 00 00 	movl   $0x12,(%rsp)
  4040b6:	e8 25 35 00 00       	callq  4075e0 <XkwMakeCommand>
  4040bb:	48 8b 35 ee 9d 20 00 	mov    0x209dee(%rip),%rsi        # 60deb0 <slider_persp+0x10>
  4040c2:	4c 89 e7             	mov    %r12,%rdi
  4040c5:	48 89 c2             	mov    %rax,%rdx
  4040c8:	41 b9 64 00 00 00    	mov    $0x64,%r9d
  4040ce:	41 b8 7b 9c 40 00    	mov    $0x409c7b,%r8d
  4040d4:	b9 30 3e 40 00       	mov    $0x403e30,%ecx
  4040d9:	31 c0                	xor    %eax,%eax
  4040db:	c7 04 24 12 00 00 00 	movl   $0x12,(%rsp)
  4040e2:	e8 f9 34 00 00       	callq  4075e0 <XkwMakeCommand>
  4040e7:	4c 89 ff             	mov    %r15,%rdi
  4040ea:	48 8b 5c 24 28       	mov    0x28(%rsp),%rbx
  4040ef:	48 8b 6c 24 30       	mov    0x30(%rsp),%rbp
  4040f4:	4c 8b 64 24 38       	mov    0x38(%rsp),%r12
  4040f9:	4c 8b 6c 24 40       	mov    0x40(%rsp),%r13
  4040fe:	31 f6                	xor    %esi,%esi
  404100:	4c 8b 74 24 48       	mov    0x48(%rsp),%r14
  404105:	4c 8b 7c 24 50       	mov    0x50(%rsp),%r15
  40410a:	48 83 c4 58          	add    $0x58,%rsp
  40410e:	e9 15 e0 ff ff       	jmpq   402128 <XtPopup@plt>
  404113:	66 0f 1f 44 00 00    	nopw   0x0(%rax,%rax,1)
  404119:	0f 1f 80 00 00 00 00 	nopl   0x0(%rax)

0000000000404120 <x_clear>:
  404120:	53                   	push   %rbx
  404121:	48 83 ec 20          	sub    $0x20,%rsp
  404125:	48 8b 15 d4 9c 20 00 	mov    0x209cd4(%rip),%rdx        # 60de00 <background>
  40412c:	48 8b 35 85 9d 20 00 	mov    0x209d85(%rip),%rsi        # 60deb8 <gc>
  404133:	48 8b 3d 26 9d 20 00 	mov    0x209d26(%rip),%rdi        # 60de60 <display>
  40413a:	e8 29 de ff ff       	callq  401f68 <XSetForeground@plt>
  40413f:	8b 35 c3 9c 20 00    	mov    0x209cc3(%rip),%esi        # 60de08 <screen>
  404145:	48 8b 3d 14 9d 20 00 	mov    0x209d14(%rip),%rdi        # 60de60 <display>
  40414c:	e8 07 df ff ff       	callq  402058 <XDisplayHeight@plt>
  404151:	8b 35 b1 9c 20 00    	mov    0x209cb1(%rip),%esi        # 60de08 <screen>
  404157:	48 8b 3d 02 9d 20 00 	mov    0x209d02(%rip),%rdi        # 60de60 <display>
  40415e:	89 c3                	mov    %eax,%ebx
  404160:	e8 a3 dc ff ff       	callq  401e08 <XDisplayWidth@plt>
  404165:	48 8b 15 4c 9d 20 00 	mov    0x209d4c(%rip),%rdx        # 60deb8 <gc>
  40416c:	48 8b 35 1d 9d 20 00 	mov    0x209d1d(%rip),%rsi        # 60de90 <pixmap>
  404173:	41 89 c1             	mov    %eax,%r9d
  404176:	48 8b 3d e3 9c 20 00 	mov    0x209ce3(%rip),%rdi        # 60de60 <display>
  40417d:	45 31 c0             	xor    %r8d,%r8d
  404180:	31 c9                	xor    %ecx,%ecx
  404182:	89 1c 24             	mov    %ebx,(%rsp)
  404185:	e8 ee dd ff ff       	callq  401f78 <XFillRectangle@plt>
  40418a:	8b 05 14 77 20 00    	mov    0x207714(%rip),%eax        # 60b8a4 <height>
  404190:	48 8b 0d 21 9d 20 00 	mov    0x209d21(%rip),%rcx        # 60deb8 <gc>
  404197:	45 31 c9             	xor    %r9d,%r9d
  40419a:	48 8b 15 df 9c 20 00 	mov    0x209cdf(%rip),%rdx        # 60de80 <window>
  4041a1:	48 8b 35 e8 9c 20 00 	mov    0x209ce8(%rip),%rsi        # 60de90 <pixmap>
  4041a8:	45 31 c0             	xor    %r8d,%r8d
  4041ab:	48 8b 3d ae 9c 20 00 	mov    0x209cae(%rip),%rdi        # 60de60 <display>
  4041b2:	c7 44 24 18 00 00 00 	movl   $0x0,0x18(%rsp)
  4041b9:	00 
  4041ba:	89 44 24 08          	mov    %eax,0x8(%rsp)
  4041be:	8b 05 dc 76 20 00    	mov    0x2076dc(%rip),%eax        # 60b8a0 <width>
  4041c4:	c7 44 24 10 00 00 00 	movl   $0x0,0x10(%rsp)
  4041cb:	00 
  4041cc:	89 04 24             	mov    %eax,(%rsp)
  4041cf:	e8 44 dd ff ff       	callq  401f18 <XCopyArea@plt>
  4041d4:	48 83 c4 20          	add    $0x20,%rsp
  4041d8:	5b                   	pop    %rbx
  4041d9:	c3                   	retq   
  4041da:	66 0f 1f 44 00 00    	nopw   0x0(%rax,%rax,1)

00000000004041e0 <x_expose>:
  4041e0:	48 83 ec 28          	sub    $0x28,%rsp
  4041e4:	8b 05 ba 76 20 00    	mov    0x2076ba(%rip),%eax        # 60b8a4 <height>
  4041ea:	48 8b 0d c7 9c 20 00 	mov    0x209cc7(%rip),%rcx        # 60deb8 <gc>
  4041f1:	48 8b 15 88 9c 20 00 	mov    0x209c88(%rip),%rdx        # 60de80 <window>
  4041f8:	48 8b 35 91 9c 20 00 	mov    0x209c91(%rip),%rsi        # 60de90 <pixmap>
  4041ff:	45 31 c9             	xor    %r9d,%r9d
  404202:	48 8b 3d 57 9c 20 00 	mov    0x209c57(%rip),%rdi        # 60de60 <display>
  404209:	45 31 c0             	xor    %r8d,%r8d
  40420c:	c7 44 24 18 00 00 00 	movl   $0x0,0x18(%rsp)
  404213:	00 
  404214:	89 44 24 08          	mov    %eax,0x8(%rsp)
  404218:	8b 05 82 76 20 00    	mov    0x207682(%rip),%eax        # 60b8a0 <width>
  40421e:	c7 44 24 10 00 00 00 	movl   $0x0,0x10(%rsp)
  404225:	00 
  404226:	89 04 24             	mov    %eax,(%rsp)
  404229:	e8 ea dc ff ff       	callq  401f18 <XCopyArea@plt>
  40422e:	48 83 c4 28          	add    $0x28,%rsp
  404232:	c3                   	retq   
  404233:	66 0f 1f 44 00 00    	nopw   0x0(%rax,%rax,1)
  404239:	0f 1f 80 00 00 00 00 	nopl   0x0(%rax)

0000000000404240 <x_stop_proc>:
  404240:	48 83 ec 08          	sub    $0x8,%rsp
  404244:	48 8b 3d 15 8e 20 00 	mov    0x208e15(%rip),%rdi        # 60d060 <timer>
  40424b:	c7 05 13 8e 20 00 00 	movl   $0x0,0x208e13(%rip)        # 60d068 <running>
  404252:	00 00 00 
  404255:	48 85 ff             	test   %rdi,%rdi
  404258:	75 06                	jne    404260 <x_stop_proc+0x20>
  40425a:	48 83 c4 08          	add    $0x8,%rsp
  40425e:	c3                   	retq   
  40425f:	90                   	nop
  404260:	e8 73 dc ff ff       	callq  401ed8 <XtRemoveTimeOut@plt>
  404265:	48 8b 3d cc 9b 20 00 	mov    0x209bcc(%rip),%rdi        # 60de38 <start>
  40426c:	31 c0                	xor    %eax,%eax
  40426e:	48 83 c4 08          	add    $0x8,%rsp
  404272:	e9 f9 22 00 00       	jmpq   406570 <XkwWidgetUnhighlight>
  404277:	66 0f 1f 84 00 00 00 	nopw   0x0(%rax,%rax,1)
  40427e:	00 00 

0000000000404280 <x_quit_proc>:
  404280:	48 83 ec 08          	sub    $0x8,%rsp
  404284:	48 8b 3d d5 8d 20 00 	mov    0x208dd5(%rip),%rdi        # 60d060 <timer>
  40428b:	48 85 ff             	test   %rdi,%rdi
  40428e:	75 45                	jne    4042d5 <x_quit_proc+0x55>
  404290:	48 8b 35 f9 9b 20 00 	mov    0x209bf9(%rip),%rsi        # 60de90 <pixmap>
  404297:	48 8b 3d c2 9b 20 00 	mov    0x209bc2(%rip),%rdi        # 60de60 <display>
  40429e:	e8 f5 de ff ff       	callq  402198 <XFreePixmap@plt>
  4042a3:	48 8b 35 0e 9c 20 00 	mov    0x209c0e(%rip),%rsi        # 60deb8 <gc>
  4042aa:	48 8b 3d af 9b 20 00 	mov    0x209baf(%rip),%rdi        # 60de60 <display>
  4042b1:	e8 12 dd ff ff       	callq  401fc8 <XFreeGC@plt>
  4042b6:	48 8b 3d 53 9b 20 00 	mov    0x209b53(%rip),%rdi        # 60de10 <app_con>
  4042bd:	e8 e6 db ff ff       	callq  401ea8 <XtDestroyApplicationContext@plt>
  4042c2:	48 8b 3d 77 90 20 00 	mov    0x209077(%rip),%rdi        # 60d340 <learning>
  4042c9:	e8 9a de ff ff       	callq  402168 <fclose@plt>
  4042ce:	31 ff                	xor    %edi,%edi
  4042d0:	e8 23 db ff ff       	callq  401df8 <exit@plt>
  4042d5:	e8 fe db ff ff       	callq  401ed8 <XtRemoveTimeOut@plt>
  4042da:	eb b4                	jmp    404290 <x_quit_proc+0x10>
  4042dc:	0f 1f 40 00          	nopl   0x0(%rax)

00000000004042e0 <x_canvas_proc>:
  4042e0:	48 83 ec 48          	sub    $0x48,%rsp
  4042e4:	8b 02                	mov    (%rdx),%eax
  4042e6:	48 89 d7             	mov    %rdx,%rdi
  4042e9:	83 f8 0c             	cmp    $0xc,%eax
  4042ec:	74 34                	je     404322 <x_canvas_proc+0x42>
  4042ee:	7e 28                	jle    404318 <x_canvas_proc+0x38>
  4042f0:	83 f8 0f             	cmp    $0xf,%eax
  4042f3:	0f 84 c7 00 00 00    	je     4043c0 <x_canvas_proc+0xe0>
  4042f9:	83 f8 16             	cmp    $0x16,%eax
  4042fc:	0f 1f 40 00          	nopl   0x0(%rax)
  404300:	75 1b                	jne    40431d <x_canvas_proc+0x3d>
  404302:	8b 42 38             	mov    0x38(%rdx),%eax
  404305:	66 89 05 da 75 20 00 	mov    %ax,0x2075da(%rip)        # 60b8e6 <nwidth.10107>
  40430c:	8b 42 3c             	mov    0x3c(%rdx),%eax
  40430f:	66 89 05 ce 75 20 00 	mov    %ax,0x2075ce(%rip)        # 60b8e4 <nheight.10108>
  404316:	eb 05                	jmp    40431d <x_canvas_proc+0x3d>
  404318:	83 f8 02             	cmp    $0x2,%eax
  40431b:	74 63                	je     404380 <x_canvas_proc+0xa0>
  40431d:	48 83 c4 48          	add    $0x48,%rsp
  404321:	c3                   	retq   
  404322:	0f b7 15 bd 75 20 00 	movzwl 0x2075bd(%rip),%edx        # 60b8e6 <nwidth.10107>
  404329:	3b 15 71 75 20 00    	cmp    0x207571(%rip),%edx        # 60b8a0 <width>
  40432f:	74 33                	je     404364 <x_canvas_proc+0x84>
  404331:	0f b7 05 ac 75 20 00 	movzwl 0x2075ac(%rip),%eax        # 60b8e4 <nheight.10108>
  404338:	89 05 66 75 20 00    	mov    %eax,0x207566(%rip)        # 60b8a4 <height>
  40433e:	31 c0                	xor    %eax,%eax
  404340:	89 15 5a 75 20 00    	mov    %edx,0x20755a(%rip)        # 60b8a0 <width>
  404346:	e8 d5 fd ff ff       	callq  404120 <x_clear>
  40434b:	bf c0 d2 60 00       	mov    $0x60d2c0,%edi
  404350:	e8 7b ef ff ff       	callq  4032d0 <draw_frame>
  404355:	bf c0 d2 60 00       	mov    $0x60d2c0,%edi
  40435a:	e8 b1 e1 ff ff       	callq  402510 <draw_pole>
  40435f:	48 83 c4 48          	add    $0x48,%rsp
  404363:	c3                   	retq   
  404364:	0f b7 05 79 75 20 00 	movzwl 0x207579(%rip),%eax        # 60b8e4 <nheight.10108>
  40436b:	3b 05 33 75 20 00    	cmp    0x207533(%rip),%eax        # 60b8a4 <height>
  404371:	75 c5                	jne    404338 <x_canvas_proc+0x58>
  404373:	31 c0                	xor    %eax,%eax
  404375:	e8 66 fe ff ff       	callq  4041e0 <x_expose>
  40437a:	eb a1                	jmp    40431d <x_canvas_proc+0x3d>
  40437c:	0f 1f 40 00          	nopl   0x0(%rax)
  404380:	48 8d 4c 24 38       	lea    0x38(%rsp),%rcx
  404385:	48 8d 74 24 20       	lea    0x20(%rsp),%rsi
  40438a:	45 31 c0             	xor    %r8d,%r8d
  40438d:	ba 0a 00 00 00       	mov    $0xa,%edx
  404392:	e8 31 da ff ff       	callq  401dc8 <XLookupString@plt>
  404397:	83 e8 01             	sub    $0x1,%eax
  40439a:	75 81                	jne    40431d <x_canvas_proc+0x3d>
  40439c:	0f b6 44 24 20       	movzbl 0x20(%rsp),%eax
  4043a1:	3c 63                	cmp    $0x63,%al
  4043a3:	74 6a                	je     40440f <x_canvas_proc+0x12f>
  4043a5:	3c 71                	cmp    $0x71,%al
  4043a7:	0f 85 70 ff ff ff    	jne    40431d <x_canvas_proc+0x3d>
  4043ad:	31 c0                	xor    %eax,%eax
  4043af:	e8 cc fe ff ff       	callq  404280 <x_quit_proc>
  4043b4:	e9 64 ff ff ff       	jmpq   40431d <x_canvas_proc+0x3d>
  4043b9:	0f 1f 80 00 00 00 00 	nopl   0x0(%rax)
  4043c0:	8b 05 de 74 20 00    	mov    0x2074de(%rip),%eax        # 60b8a4 <height>
  4043c6:	48 8b 0d eb 9a 20 00 	mov    0x209aeb(%rip),%rcx        # 60deb8 <gc>
  4043cd:	45 31 c9             	xor    %r9d,%r9d
  4043d0:	48 8b 15 b9 9a 20 00 	mov    0x209ab9(%rip),%rdx        # 60de90 <pixmap>
  4043d7:	48 8b 35 a2 9a 20 00 	mov    0x209aa2(%rip),%rsi        # 60de80 <window>
  4043de:	45 31 c0             	xor    %r8d,%r8d
  4043e1:	48 8b 3d 78 9a 20 00 	mov    0x209a78(%rip),%rdi        # 60de60 <display>
  4043e8:	c7 44 24 18 00 00 00 	movl   $0x0,0x18(%rsp)
  4043ef:	00 
  4043f0:	89 44 24 08          	mov    %eax,0x8(%rsp)
  4043f4:	8b 05 a6 74 20 00    	mov    0x2074a6(%rip),%eax        # 60b8a0 <width>
  4043fa:	c7 44 24 10 00 00 00 	movl   $0x0,0x10(%rsp)
  404401:	00 
  404402:	89 04 24             	mov    %eax,(%rsp)
  404405:	e8 0e db ff ff       	callq  401f18 <XCopyArea@plt>
  40440a:	48 83 c4 48          	add    $0x48,%rsp
  40440e:	c3                   	retq   
  40440f:	31 c0                	xor    %eax,%eax
  404411:	e8 0a fd ff ff       	callq  404120 <x_clear>
  404416:	e9 02 ff ff ff       	jmpq   40431d <x_canvas_proc+0x3d>
  40441b:	0f 1f 44 00 00       	nopl   0x0(%rax,%rax,1)

0000000000404420 <x_draw_proc>:
  404420:	8b 35 46 8c 20 00    	mov    0x208c46(%rip),%esi        # 60d06c <graphics>
  404426:	ba 56 55 55 55       	mov    $0x55555556,%edx
  40442b:	53                   	push   %rbx
  40442c:	48 89 fb             	mov    %rdi,%rbx
  40442f:	83 c6 01             	add    $0x1,%esi
  404432:	89 f0                	mov    %esi,%eax
  404434:	89 f1                	mov    %esi,%ecx
  404436:	f7 ea                	imul   %edx
  404438:	c1 f9 1f             	sar    $0x1f,%ecx
  40443b:	89 f0                	mov    %esi,%eax
  40443d:	29 ca                	sub    %ecx,%edx
  40443f:	8d 14 52             	lea    (%rdx,%rdx,2),%edx
  404442:	29 d0                	sub    %edx,%eax
  404444:	85 c0                	test   %eax,%eax
  404446:	89 05 20 8c 20 00    	mov    %eax,0x208c20(%rip)        # 60d06c <graphics>
  40444c:	74 14                	je     404462 <x_draw_proc+0x42>
  40444e:	83 3d 17 8c 20 00 01 	cmpl   $0x1,0x208c17(%rip)        # 60d06c <graphics>
  404455:	74 2c                	je     404483 <x_draw_proc+0x63>
  404457:	83 3d 0e 8c 20 00 02 	cmpl   $0x2,0x208c0e(%rip)        # 60d06c <graphics>
  40445e:	74 50                	je     4044b0 <x_draw_proc+0x90>
  404460:	5b                   	pop    %rbx
  404461:	c3                   	retq   
  404462:	be 80 9c 40 00       	mov    $0x409c80,%esi
  404467:	e8 a4 1f 00 00       	callq  406410 <XkwSetWidgetLabel>
  40446c:	48 8b 3d d5 99 20 00 	mov    0x2099d5(%rip),%rdi        # 60de48 <draw>
  404473:	31 c0                	xor    %eax,%eax
  404475:	e8 86 21 00 00       	callq  406600 <XkwWidgetHighlight>
  40447a:	83 3d eb 8b 20 00 01 	cmpl   $0x1,0x208beb(%rip)        # 60d06c <graphics>
  404481:	75 d4                	jne    404457 <x_draw_proc+0x37>
  404483:	31 c0                	xor    %eax,%eax
  404485:	be 85 9c 40 00       	mov    $0x409c85,%esi
  40448a:	48 89 df             	mov    %rbx,%rdi
  40448d:	e8 7e 1f 00 00       	callq  406410 <XkwSetWidgetLabel>
  404492:	48 8b 3d af 99 20 00 	mov    0x2099af(%rip),%rdi        # 60de48 <draw>
  404499:	31 c0                	xor    %eax,%eax
  40449b:	e8 d0 20 00 00       	callq  406570 <XkwWidgetUnhighlight>
  4044a0:	83 3d c5 8b 20 00 02 	cmpl   $0x2,0x208bc5(%rip)        # 60d06c <graphics>
  4044a7:	75 b7                	jne    404460 <x_draw_proc+0x40>
  4044a9:	0f 1f 80 00 00 00 00 	nopl   0x0(%rax)
  4044b0:	48 89 df             	mov    %rbx,%rdi
  4044b3:	31 c0                	xor    %eax,%eax
  4044b5:	be 90 9c 40 00       	mov    $0x409c90,%esi
  4044ba:	e8 51 1f 00 00       	callq  406410 <XkwSetWidgetLabel>
  4044bf:	5b                   	pop    %rbx
  4044c0:	48 8b 3d 81 99 20 00 	mov    0x209981(%rip),%rdi        # 60de48 <draw>
  4044c7:	31 c0                	xor    %eax,%eax
  4044c9:	e9 a2 20 00 00       	jmpq   406570 <XkwWidgetUnhighlight>
  4044ce:	66 90                	xchg   %ax,%ax

00000000004044d0 <update_sliders>:
  4044d0:	53                   	push   %rbx
  4044d1:	31 db                	xor    %ebx,%ebx
  4044d3:	48 8b 15 ae 99 20 00 	mov    0x2099ae(%rip),%rdx        # 60de88 <pole>
  4044da:	48 63 c3             	movslq %ebx,%rax
  4044dd:	48 8b 3c dd 20 de 60 	mov    0x60de20(,%rbx,8),%rdi
  4044e4:	00 
  4044e5:	48 83 c3 01          	add    $0x1,%rbx
  4044e9:	f2 0f 10 44 c2 38    	movsd  0x38(%rdx,%rax,8),%xmm0
  4044ef:	b8 01 00 00 00       	mov    $0x1,%eax
  4044f4:	e8 87 31 00 00       	callq  407680 <XkwSetSliderValue>
  4044f9:	48 83 fb 03          	cmp    $0x3,%rbx
  4044fd:	75 d4                	jne    4044d3 <update_sliders+0x3>
  4044ff:	48 8b 05 82 99 20 00 	mov    0x209982(%rip),%rax        # 60de88 <pole>
  404506:	f2 0f 10 40 08       	movsd  0x8(%rax),%xmm0
  40450b:	f2 0f 5c 05 7d 59 00 	subsd  0x597d(%rip),%xmm0        # 409e90 <__dso_handle+0x268>
  404512:	00 
  404513:	66 0f 2e 05 7d 59 00 	ucomisd 0x597d(%rip),%xmm0        # 409e98 <__dso_handle+0x270>
  40451a:	00 
  40451b:	76 49                	jbe    404566 <update_sliders+0x96>
  40451d:	f2 0f 5c 05 7b 59 00 	subsd  0x597b(%rip),%xmm0        # 409ea0 <__dso_handle+0x278>
  404524:	00 
  404525:	48 8b 3d 44 99 20 00 	mov    0x209944(%rip),%rdi        # 60de70 <slider_ang>
  40452c:	b8 01 00 00 00       	mov    $0x1,%eax
  404531:	e8 4a 31 00 00       	callq  407680 <XkwSetSliderValue>
  404536:	48 8b 05 4b 99 20 00 	mov    0x20994b(%rip),%rax        # 60de88 <pole>
  40453d:	f2 0f 10 40 10       	movsd  0x10(%rax),%xmm0
  404542:	66 0f 2e 05 4e 59 00 	ucomisd 0x594e(%rip),%xmm0        # 409e98 <__dso_handle+0x270>
  404549:	00 
  40454a:	76 34                	jbe    404580 <update_sliders+0xb0>
  40454c:	f2 0f 5c 05 4c 59 00 	subsd  0x594c(%rip),%xmm0        # 409ea0 <__dso_handle+0x278>
  404553:	00 
  404554:	5b                   	pop    %rbx
  404555:	48 8b 3d 1c 99 20 00 	mov    0x20991c(%rip),%rdi        # 60de78 <slider_ang+0x8>
  40455c:	b8 01 00 00 00       	mov    $0x1,%eax
  404561:	e9 1a 31 00 00       	jmpq   407680 <XkwSetSliderValue>
  404566:	66 0f 2e 05 3a 59 00 	ucomisd 0x593a(%rip),%xmm0        # 409ea8 <__dso_handle+0x280>
  40456d:	00 
  40456e:	73 b5                	jae    404525 <update_sliders+0x55>
  404570:	7a b3                	jp     404525 <update_sliders+0x55>
  404572:	f2 0f 58 05 26 59 00 	addsd  0x5926(%rip),%xmm0        # 409ea0 <__dso_handle+0x278>
  404579:	00 
  40457a:	eb a9                	jmp    404525 <update_sliders+0x55>
  40457c:	0f 1f 40 00          	nopl   0x0(%rax)
  404580:	66 0f 2e 05 20 59 00 	ucomisd 0x5920(%rip),%xmm0        # 409ea8 <__dso_handle+0x280>
  404587:	00 
  404588:	73 ca                	jae    404554 <update_sliders+0x84>
  40458a:	7a c8                	jp     404554 <update_sliders+0x84>
  40458c:	f2 0f 58 05 0c 59 00 	addsd  0x590c(%rip),%xmm0        # 409ea0 <__dso_handle+0x278>
  404593:	00 
  404594:	eb be                	jmp    404554 <update_sliders+0x84>
  404596:	66 2e 0f 1f 84 00 00 	nopw   %cs:0x0(%rax,%rax,1)
  40459d:	00 00 00 

00000000004045a0 <simulate>:
  4045a0:	41 55                	push   %r13
  4045a2:	49 bd 00 00 00 00 00 	movabs $0x4034000000000000,%r13
  4045a9:	00 34 40 
  4045ac:	41 54                	push   %r12
  4045ae:	49 bc 7b 14 ae 47 e1 	movabs $0x3f847ae147ae147b,%r12
  4045b5:	7a 84 3f 
  4045b8:	55                   	push   %rbp
  4045b9:	31 ed                	xor    %ebp,%ebp
  4045bb:	53                   	push   %rbx
  4045bc:	48 83 ec 08          	sub    $0x8,%rsp
  4045c0:	eb 5c                	jmp    40461e <simulate+0x7e>
  4045c2:	f2 0f 2c c1          	cvttsd2si %xmm1,%eax
  4045c6:	01 c5                	add    %eax,%ebp
  4045c8:	48 8b 3d b9 98 20 00 	mov    0x2098b9(%rip),%rdi        # 60de88 <pole>
  4045cf:	41 b8 48 d3 60 00    	mov    $0x60d348,%r8d
  4045d5:	b9 ec b8 60 00       	mov    $0x60b8ec,%ecx
  4045da:	ba 80 d0 60 00       	mov    $0x60d080,%edx
  4045df:	31 f6                	xor    %esi,%esi
  4045e1:	31 db                	xor    %ebx,%ebx
  4045e3:	e8 38 1c 00 00       	callq  406220 <pole_learn>
  4045e8:	4c 89 24 24          	mov    %r12,(%rsp)
  4045ec:	bf 80 d0 60 00       	mov    $0x60d080,%edi
  4045f1:	b8 01 00 00 00       	mov    $0x1,%eax
  4045f6:	f2 0f 10 04 24       	movsd  (%rsp),%xmm0
  4045fb:	83 c3 01             	add    $0x1,%ebx
  4045fe:	e8 8d 0a 00 00       	callq  405090 <pole_dyn>
  404603:	83 fb 02             	cmp    $0x2,%ebx
  404606:	75 e0                	jne    4045e8 <simulate+0x48>
  404608:	f2 0f 2a c5          	cvtsi2sd %ebp,%xmm0
  40460c:	f2 0f 10 0d 5c 58 00 	movsd  0x585c(%rip),%xmm1        # 409e70 <__dso_handle+0x248>
  404613:	00 
  404614:	66 0f 2e c8          	ucomisd %xmm0,%xmm1
  404618:	0f 86 4c 01 00 00    	jbe    40476a <simulate+0x1ca>
  40461e:	b8 02 00 00 00       	mov    $0x2,%eax
  404623:	2b 05 43 8a 20 00    	sub    0x208a43(%rip),%eax        # 60d06c <graphics>
  404629:	4c 89 2c 24          	mov    %r13,(%rsp)
  40462d:	f2 0f 10 04 24       	movsd  (%rsp),%xmm0
  404632:	f2 0f 2a c8          	cvtsi2sd %eax,%xmm1
  404636:	e8 dd d9 ff ff       	callq  402018 <pow@plt>
  40463b:	8b 35 ab 72 20 00    	mov    0x2072ab(%rip),%esi        # 60b8ec <fail>
  404641:	66 0f 28 c8          	movapd %xmm0,%xmm1
  404645:	85 f6                	test   %esi,%esi
  404647:	0f 85 03 01 00 00    	jne    404750 <simulate+0x1b0>
  40464d:	48 8b 05 34 98 20 00 	mov    0x209834(%rip),%rax        # 60de88 <pole>
  404654:	f2 0f 10 80 80 00 00 	movsd  0x80(%rax),%xmm0
  40465b:	00 
  40465c:	66 0f 2e 05 4c 58 00 	ucomisd 0x584c(%rip),%xmm0        # 409eb0 <__dso_handle+0x288>
  404663:	00 
  404664:	0f 82 58 ff ff ff    	jb     4045c2 <simulate+0x22>
  40466a:	8b 35 70 72 20 00    	mov    0x207270(%rip),%esi        # 60b8e0 <trial.10627>
  404670:	f2 0f 10 80 80 00 00 	movsd  0x80(%rax),%xmm0
  404677:	00 
  404678:	bf 9d 9c 40 00       	mov    $0x409c9d,%edi
  40467d:	b8 01 00 00 00       	mov    $0x1,%eax
  404682:	e8 d1 d6 ff ff       	callq  401d58 <printf@plt>
  404687:	8b 15 53 72 20 00    	mov    0x207253(%rip),%edx        # 60b8e0 <trial.10627>
  40468d:	85 d2                	test   %edx,%edx
  40468f:	78 25                	js     4046b6 <simulate+0x116>
  404691:	48 8b 05 f0 97 20 00 	mov    0x2097f0(%rip),%rax        # 60de88 <pole>
  404698:	48 8b 3d a1 8c 20 00 	mov    0x208ca1(%rip),%rdi        # 60d340 <learning>
  40469f:	be b4 9c 40 00       	mov    $0x409cb4,%esi
  4046a4:	f2 0f 10 80 80 00 00 	movsd  0x80(%rax),%xmm0
  4046ab:	00 
  4046ac:	b8 01 00 00 00       	mov    $0x1,%eax
  4046b1:	e8 32 db ff ff       	callq  4021e8 <fprintf@plt>
  4046b6:	48 8b 05 cb 97 20 00 	mov    0x2097cb(%rip),%rax        # 60de88 <pole>
  4046bd:	f2 0f 10 88 80 00 00 	movsd  0x80(%rax),%xmm1
  4046c4:	00 
  4046c5:	66 0f 2e 0d eb 57 00 	ucomisd 0x57eb(%rip),%xmm1        # 409eb8 <__dso_handle+0x290>
  4046cc:	00 
  4046cd:	0f 86 89 00 00 00    	jbe    40475c <simulate+0x1bc>
  4046d3:	8b 0d 6f 8c 20 00    	mov    0x208c6f(%rip),%ecx        # 60d348 <explore>
  4046d9:	4c 89 24 24          	mov    %r12,(%rsp)
  4046dd:	bf bb 9c 40 00       	mov    $0x409cbb,%edi
  4046e2:	f2 0f 10 14 24       	movsd  (%rsp),%xmm2
  4046e7:	69 c1 c8 00 00 00    	imul   $0xc8,%ecx,%eax
  4046ed:	f2 0f 2a c0          	cvtsi2sd %eax,%xmm0
  4046f1:	b8 01 00 00 00       	mov    $0x1,%eax
  4046f6:	f2 0f 59 c2          	mulsd  %xmm2,%xmm0
  4046fa:	f2 0f 5e c1          	divsd  %xmm1,%xmm0
  4046fe:	e8 55 d6 ff ff       	callq  401d58 <printf@plt>
  404703:	48 8b 3d 7e 97 20 00 	mov    0x20977e(%rip),%rdi        # 60de88 <pole>
  40470a:	41 b8 48 d3 60 00    	mov    $0x60d348,%r8d
  404710:	b9 ec b8 60 00       	mov    $0x60b8ec,%ecx
  404715:	ba 80 d0 60 00       	mov    $0x60d080,%edx
  40471a:	be 01 00 00 00       	mov    $0x1,%esi
  40471f:	bd ea 03 00 00       	mov    $0x3ea,%ebp
  404724:	e8 f7 1a 00 00       	callq  406220 <pole_learn>
  404729:	31 c0                	xor    %eax,%eax
  40472b:	c7 05 13 8c 20 00 00 	movl   $0x0,0x208c13(%rip)        # 60d348 <explore>
  404732:	00 00 00 
  404735:	c7 05 ad 71 20 00 00 	movl   $0x0,0x2071ad(%rip)        # 60b8ec <fail>
  40473c:	00 00 00 
  40473f:	e8 6c 08 00 00       	callq  404fb0 <init_pole>
  404744:	83 05 95 71 20 00 01 	addl   $0x1,0x207195(%rip)        # 60b8e0 <trial.10627>
  40474b:	e9 78 fe ff ff       	jmpq   4045c8 <simulate+0x28>
  404750:	48 8b 05 31 97 20 00 	mov    0x209731(%rip),%rax        # 60de88 <pole>
  404757:	e9 0e ff ff ff       	jmpq   40466a <simulate+0xca>
  40475c:	bf d2 9c 40 00       	mov    $0x409cd2,%edi
  404761:	31 c0                	xor    %eax,%eax
  404763:	e8 f0 d5 ff ff       	callq  401d58 <printf@plt>
  404768:	eb 99                	jmp    404703 <simulate+0x163>
  40476a:	bf c0 d2 60 00       	mov    $0x60d2c0,%edi
  40476f:	e8 5c eb ff ff       	callq  4032d0 <draw_frame>
  404774:	bf c0 d2 60 00       	mov    $0x60d2c0,%edi
  404779:	e8 92 dd ff ff       	callq  402510 <draw_pole>
  40477e:	48 83 c4 08          	add    $0x8,%rsp
  404782:	31 c0                	xor    %eax,%eax
  404784:	5b                   	pop    %rbx
  404785:	5d                   	pop    %rbp
  404786:	41 5c                	pop    %r12
  404788:	41 5d                	pop    %r13
  40478a:	e9 41 fd ff ff       	jmpq   4044d0 <update_sliders>
  40478f:	90                   	nop

0000000000404790 <x_rot_proc>:
  404790:	41 54                	push   %r12
  404792:	53                   	push   %rbx
  404793:	48 81 ec 08 01 00 00 	sub    $0x108,%rsp
  40479a:	8b 3d d0 88 20 00    	mov    0x2088d0(%rip),%edi        # 60d070 <persp_on>
  4047a0:	85 ff                	test   %edi,%edi
  4047a2:	74 24                	je     4047c8 <x_rot_proc+0x38>
  4047a4:	31 db                	xor    %ebx,%ebx
  4047a6:	48 8b 3c dd a0 de 60 	mov    0x60dea0(,%rbx,8),%rdi
  4047ad:	00 
  4047ae:	31 c0                	xor    %eax,%eax
  4047b0:	e8 eb 1f 00 00       	callq  4067a0 <XkwGetSliderValue>
  4047b5:	f2 0f 11 04 dd 60 d2 	movsd  %xmm0,0x60d260(,%rbx,8)
  4047bc:	60 00 
  4047be:	48 83 c3 01          	add    $0x1,%rbx
  4047c2:	48 83 fb 03          	cmp    $0x3,%rbx
  4047c6:	75 de                	jne    4047a6 <x_rot_proc+0x16>
  4047c8:	48 8d 9c 24 80 00 00 	lea    0x80(%rsp),%rbx
  4047cf:	00 
  4047d0:	bf c0 d2 60 00       	mov    $0x60d2c0,%edi
  4047d5:	e8 e6 11 00 00       	callq  4059c0 <Identity>
  4047da:	f2 0f 10 05 7e 8a 20 	movsd  0x208a7e(%rip),%xmm0        # 60d260 <persp_ang>
  4047e1:	00 
  4047e2:	48 89 df             	mov    %rbx,%rdi
  4047e5:	e8 96 13 00 00       	callq  405b80 <RotX>
  4047ea:	48 89 e2             	mov    %rsp,%rdx
  4047ed:	be c0 d2 60 00       	mov    $0x60d2c0,%esi
  4047f2:	48 89 df             	mov    %rbx,%rdi
  4047f5:	e8 56 10 00 00       	callq  405850 <T_mult>
  4047fa:	f2 0f 10 05 66 8a 20 	movsd  0x208a66(%rip),%xmm0        # 60d268 <persp_ang+0x8>
  404801:	00 
  404802:	48 89 df             	mov    %rbx,%rdi
  404805:	e8 e6 12 00 00       	callq  405af0 <RotY>
  40480a:	48 89 e6             	mov    %rsp,%rsi
  40480d:	ba c0 d2 60 00       	mov    $0x60d2c0,%edx
  404812:	48 89 df             	mov    %rbx,%rdi
  404815:	e8 36 10 00 00       	callq  405850 <T_mult>
  40481a:	f2 0f 10 05 4e 8a 20 	movsd  0x208a4e(%rip),%xmm0        # 60d270 <persp_ang+0x10>
  404821:	00 
  404822:	48 89 df             	mov    %rbx,%rdi
  404825:	e8 36 12 00 00       	callq  405a60 <RotZ>
  40482a:	48 89 e2             	mov    %rsp,%rdx
  40482d:	48 89 df             	mov    %rbx,%rdi
  404830:	be c0 d2 60 00       	mov    $0x60d2c0,%esi
  404835:	e8 16 10 00 00       	callq  405850 <T_mult>
  40483a:	be c0 d2 60 00       	mov    $0x60d2c0,%esi
  40483f:	48 89 e7             	mov    %rsp,%rdi
  404842:	e8 39 11 00 00       	callq  405980 <T_copy>
  404847:	31 c0                	xor    %eax,%eax
  404849:	e8 d2 f8 ff ff       	callq  404120 <x_clear>
  40484e:	bf c0 d2 60 00       	mov    $0x60d2c0,%edi
  404853:	e8 78 ea ff ff       	callq  4032d0 <draw_frame>
  404858:	bf c0 d2 60 00       	mov    $0x60d2c0,%edi
  40485d:	e8 ae dc ff ff       	callq  402510 <draw_pole>
  404862:	48 81 c4 08 01 00 00 	add    $0x108,%rsp
  404869:	5b                   	pop    %rbx
  40486a:	41 5c                	pop    %r12
  40486c:	c3                   	retq   
  40486d:	0f 1f 00             	nopl   (%rax)

0000000000404870 <x_view_proc>:
  404870:	41 54                	push   %r12
  404872:	53                   	push   %rbx
  404873:	48 81 ec 18 01 00 00 	sub    $0x118,%rsp
  40487a:	e8 e9 d4 ff ff       	callq  401d68 <XtName@plt>
  40487f:	48 8d 94 24 00 01 00 	lea    0x100(%rsp),%rdx
  404886:	00 
  404887:	48 89 c7             	mov    %rax,%rdi
  40488a:	be ea 9c 40 00       	mov    $0x409cea,%esi
  40488f:	31 c0                	xor    %eax,%eax
  404891:	e8 42 d7 ff ff       	callq  401fd8 <sscanf@plt>
  404896:	0f b6 84 24 00 01 00 	movzbl 0x100(%rsp),%eax
  40489d:	00 
  40489e:	3c 53                	cmp    $0x53,%al
  4048a0:	0f 84 dc 00 00 00    	je     404982 <x_view_proc+0x112>
  4048a6:	3c 54                	cmp    $0x54,%al
  4048a8:	0f 84 fa 00 00 00    	je     4049a8 <x_view_proc+0x138>
  4048ae:	3c 46                	cmp    $0x46,%al
  4048b0:	0f 84 18 01 00 00    	je     4049ce <x_view_proc+0x15e>
  4048b6:	48 8d 9c 24 80 00 00 	lea    0x80(%rsp),%rbx
  4048bd:	00 
  4048be:	bf c0 d2 60 00       	mov    $0x60d2c0,%edi
  4048c3:	e8 f8 10 00 00       	callq  4059c0 <Identity>
  4048c8:	f2 0f 10 05 90 89 20 	movsd  0x208990(%rip),%xmm0        # 60d260 <persp_ang>
  4048cf:	00 
  4048d0:	48 89 df             	mov    %rbx,%rdi
  4048d3:	e8 a8 12 00 00       	callq  405b80 <RotX>
  4048d8:	48 89 e2             	mov    %rsp,%rdx
  4048db:	be c0 d2 60 00       	mov    $0x60d2c0,%esi
  4048e0:	48 89 df             	mov    %rbx,%rdi
  4048e3:	e8 68 0f 00 00       	callq  405850 <T_mult>
  4048e8:	f2 0f 10 05 78 89 20 	movsd  0x208978(%rip),%xmm0        # 60d268 <persp_ang+0x8>
  4048ef:	00 
  4048f0:	48 89 df             	mov    %rbx,%rdi
  4048f3:	e8 f8 11 00 00       	callq  405af0 <RotY>
  4048f8:	ba c0 d2 60 00       	mov    $0x60d2c0,%edx
  4048fd:	48 89 e6             	mov    %rsp,%rsi
  404900:	48 89 df             	mov    %rbx,%rdi
  404903:	e8 48 0f 00 00       	callq  405850 <T_mult>
  404908:	f2 0f 10 05 60 89 20 	movsd  0x208960(%rip),%xmm0        # 60d270 <persp_ang+0x10>
  40490f:	00 
  404910:	48 89 df             	mov    %rbx,%rdi
  404913:	e8 48 11 00 00       	callq  405a60 <RotZ>
  404918:	48 89 e2             	mov    %rsp,%rdx
  40491b:	48 89 df             	mov    %rbx,%rdi
  40491e:	be c0 d2 60 00       	mov    $0x60d2c0,%esi
  404923:	e8 28 0f 00 00       	callq  405850 <T_mult>
  404928:	be c0 d2 60 00       	mov    $0x60d2c0,%esi
  40492d:	48 89 e7             	mov    %rsp,%rdi
  404930:	31 db                	xor    %ebx,%ebx
  404932:	e8 49 10 00 00       	callq  405980 <T_copy>
  404937:	31 c0                	xor    %eax,%eax
  404939:	e8 e2 f7 ff ff       	callq  404120 <x_clear>
  40493e:	bf c0 d2 60 00       	mov    $0x60d2c0,%edi
  404943:	e8 88 e9 ff ff       	callq  4032d0 <draw_frame>
  404948:	bf c0 d2 60 00       	mov    $0x60d2c0,%edi
  40494d:	e8 be db ff ff       	callq  402510 <draw_pole>
  404952:	48 8b 3c dd a0 de 60 	mov    0x60dea0(,%rbx,8),%rdi
  404959:	00 
  40495a:	f2 0f 10 04 dd 60 d2 	movsd  0x60d260(,%rbx,8),%xmm0
  404961:	60 00 
  404963:	b8 01 00 00 00       	mov    $0x1,%eax
  404968:	48 83 c3 01          	add    $0x1,%rbx
  40496c:	e8 0f 2d 00 00       	callq  407680 <XkwSetSliderValue>
  404971:	48 83 fb 03          	cmp    $0x3,%rbx
  404975:	75 db                	jne    404952 <x_view_proc+0xe2>
  404977:	48 81 c4 18 01 00 00 	add    $0x118,%rsp
  40497e:	5b                   	pop    %rbx
  40497f:	41 5c                	pop    %r12
  404981:	c3                   	retq   
  404982:	31 c0                	xor    %eax,%eax
  404984:	49 b9 18 2d 44 54 fb 	movabs $0xbff921fb54442d18,%r9
  40498b:	21 f9 bf 
  40498e:	48 89 05 cb 88 20 00 	mov    %rax,0x2088cb(%rip)        # 60d260 <persp_ang>
  404995:	48 89 05 cc 88 20 00 	mov    %rax,0x2088cc(%rip)        # 60d268 <persp_ang+0x8>
  40499c:	4c 89 0d cd 88 20 00 	mov    %r9,0x2088cd(%rip)        # 60d270 <persp_ang+0x10>
  4049a3:	e9 0e ff ff ff       	jmpq   4048b6 <x_view_proc+0x46>
  4049a8:	31 c0                	xor    %eax,%eax
  4049aa:	49 b8 18 2d 44 54 fb 	movabs $0x3ff921fb54442d18,%r8
  4049b1:	21 f9 3f 
  4049b4:	4c 89 05 a5 88 20 00 	mov    %r8,0x2088a5(%rip)        # 60d260 <persp_ang>
  4049bb:	48 89 05 a6 88 20 00 	mov    %rax,0x2088a6(%rip)        # 60d268 <persp_ang+0x8>
  4049c2:	48 89 05 a7 88 20 00 	mov    %rax,0x2088a7(%rip)        # 60d270 <persp_ang+0x10>
  4049c9:	e9 e8 fe ff ff       	jmpq   4048b6 <x_view_proc+0x46>
  4049ce:	31 c0                	xor    %eax,%eax
  4049d0:	48 89 05 89 88 20 00 	mov    %rax,0x208889(%rip)        # 60d260 <persp_ang>
  4049d7:	48 89 05 8a 88 20 00 	mov    %rax,0x20888a(%rip)        # 60d268 <persp_ang+0x8>
  4049de:	48 89 05 8b 88 20 00 	mov    %rax,0x20888b(%rip)        # 60d270 <persp_ang+0x10>
  4049e5:	e9 cc fe ff ff       	jmpq   4048b6 <x_view_proc+0x46>
  4049ea:	66 0f 1f 44 00 00    	nopw   0x0(%rax,%rax,1)

00000000004049f0 <x_run_proc>:
  4049f0:	53                   	push   %rbx
  4049f1:	31 c0                	xor    %eax,%eax
  4049f3:	48 89 f3             	mov    %rsi,%rbx
  4049f6:	e8 a5 fb ff ff       	callq  4045a0 <simulate>
  4049fb:	48 8b 3d 0e 94 20 00 	mov    0x20940e(%rip),%rdi        # 60de10 <app_con>
  404a02:	48 89 d9             	mov    %rbx,%rcx
  404a05:	ba f0 49 40 00       	mov    $0x4049f0,%edx
  404a0a:	be 01 00 00 00       	mov    $0x1,%esi
  404a0f:	e8 94 d6 ff ff       	callq  4020a8 <XtAppAddTimeOut@plt>
  404a14:	5b                   	pop    %rbx
  404a15:	48 89 05 44 86 20 00 	mov    %rax,0x208644(%rip)        # 60d060 <timer>
  404a1c:	c3                   	retq   
  404a1d:	0f 1f 00             	nopl   (%rax)

0000000000404a20 <x_start_proc>:
  404a20:	44 8b 1d 41 86 20 00 	mov    0x208641(%rip),%r11d        # 60d068 <running>
  404a27:	53                   	push   %rbx
  404a28:	48 89 f3             	mov    %rsi,%rbx
  404a2b:	45 85 db             	test   %r11d,%r11d
  404a2e:	75 72                	jne    404aa2 <x_start_proc+0x82>
  404a30:	44 8b 15 b1 6e 20 00 	mov    0x206eb1(%rip),%r10d        # 60b8e8 <init.9960>
  404a37:	45 85 d2             	test   %r10d,%r10d
  404a3a:	75 44                	jne    404a80 <x_start_proc+0x60>
  404a3c:	31 c0                	xor    %eax,%eax
  404a3e:	c7 05 20 86 20 00 01 	movl   $0x1,0x208620(%rip)        # 60d068 <running>
  404a45:	00 00 00 
  404a48:	e8 53 fb ff ff       	callq  4045a0 <simulate>
  404a4d:	48 8b 3d bc 93 20 00 	mov    0x2093bc(%rip),%rdi        # 60de10 <app_con>
  404a54:	48 89 d9             	mov    %rbx,%rcx
  404a57:	ba f0 49 40 00       	mov    $0x4049f0,%edx
  404a5c:	be 01 00 00 00       	mov    $0x1,%esi
  404a61:	e8 42 d6 ff ff       	callq  4020a8 <XtAppAddTimeOut@plt>
  404a66:	5b                   	pop    %rbx
  404a67:	48 8b 3d ca 93 20 00 	mov    0x2093ca(%rip),%rdi        # 60de38 <start>
  404a6e:	48 89 05 eb 85 20 00 	mov    %rax,0x2085eb(%rip)        # 60d060 <timer>
  404a75:	31 c0                	xor    %eax,%eax
  404a77:	e9 84 1b 00 00       	jmpq   406600 <XkwWidgetHighlight>
  404a7c:	0f 1f 40 00          	nopl   0x0(%rax)
  404a80:	be 83 9c 40 00       	mov    $0x409c83,%esi
  404a85:	bf f2 9c 40 00       	mov    $0x409cf2,%edi
  404a8a:	c7 05 54 6e 20 00 00 	movl   $0x0,0x206e54(%rip)        # 60b8e8 <init.9960>
  404a91:	00 00 00 
  404a94:	e8 1f d7 ff ff       	callq  4021b8 <fopen64@plt>
  404a99:	48 89 05 a0 88 20 00 	mov    %rax,0x2088a0(%rip)        # 60d340 <learning>
  404aa0:	eb 9a                	jmp    404a3c <x_start_proc+0x1c>
  404aa2:	5b                   	pop    %rbx
  404aa3:	c3                   	retq   
  404aa4:	66 0f 1f 44 00 00    	nopw   0x0(%rax,%rax,1)
  404aaa:	66 0f 1f 44 00 00    	nopw   0x0(%rax,%rax,1)

0000000000404ab0 <main>:
  404ab0:	41 55                	push   %r13
  404ab2:	41 54                	push   %r12
  404ab4:	55                   	push   %rbp
  404ab5:	bd 80 d2 60 00       	mov    $0x60d280,%ebp
  404aba:	53                   	push   %rbx
  404abb:	48 89 f3             	mov    %rsi,%rbx
  404abe:	48 83 ec 78          	sub    $0x78,%rsp
  404ac2:	89 7c 24 3c          	mov    %edi,0x3c(%rsp)
  404ac6:	bf 88 00 00 00       	mov    $0x88,%edi
  404acb:	4c 8d 64 24 48       	lea    0x48(%rsp),%r12
  404ad0:	e8 43 d3 ff ff       	callq  401e18 <malloc@plt>
  404ad5:	48 89 05 ac 93 20 00 	mov    %rax,0x2093ac(%rip)        # 60de88 <pole>
  404adc:	31 c0                	xor    %eax,%eax
  404ade:	e8 cd 04 00 00       	callq  404fb0 <init_pole>
  404ae3:	4c 8d 44 24 3c       	lea    0x3c(%rsp),%r8
  404ae8:	49 89 d9             	mov    %rbx,%r9
  404aeb:	31 c9                	xor    %ecx,%ecx
  404aed:	31 d2                	xor    %edx,%edx
  404aef:	be ff 9c 40 00       	mov    $0x409cff,%esi
  404af4:	bf 10 de 60 00       	mov    $0x60de10,%edi
  404af9:	c7 44 24 10 00 00 00 	movl   $0x0,0x10(%rsp)
  404b00:	00 
  404b01:	48 c7 44 24 08 00 00 	movq   $0x0,0x8(%rsp)
  404b08:	00 00 
  404b0a:	31 db                	xor    %ebx,%ebx
  404b0c:	48 c7 04 24 c0 b8 60 	movq   $0x60b8c0,(%rsp)
  404b13:	00 
  404b14:	e8 ef d3 ff ff       	callq  401f08 <XtAppInitialize@plt>
  404b19:	48 89 c7             	mov    %rax,%rdi
  404b1c:	48 89 05 35 93 20 00 	mov    %rax,0x209335(%rip)        # 60de58 <toplevel>
  404b23:	31 c0                	xor    %eax,%eax
  404b25:	e8 16 1e 00 00       	callq  406940 <XkwMakeForm>
  404b2a:	44 8b 0d 73 6d 20 00 	mov    0x206d73(%rip),%r9d        # 60b8a4 <height>
  404b31:	44 8b 05 68 6d 20 00 	mov    0x206d68(%rip),%r8d        # 60b8a0 <width>
  404b38:	49 89 c5             	mov    %rax,%r13
  404b3b:	48 89 c7             	mov    %rax,%rdi
  404b3e:	b9 e0 42 40 00       	mov    $0x4042e0,%ecx
  404b43:	31 d2                	xor    %edx,%edx
  404b45:	31 f6                	xor    %esi,%esi
  404b47:	31 c0                	xor    %eax,%eax
  404b49:	e8 f2 1f 00 00       	callq  406b40 <XkwMakeCanvas>
  404b4e:	41 b9 7d 00 00 00    	mov    $0x7d,%r9d
  404b54:	48 89 c6             	mov    %rax,%rsi
  404b57:	48 89 05 3a 93 20 00 	mov    %rax,0x20933a(%rip)        # 60de98 <canvas>
  404b5e:	41 b8 05 9d 40 00    	mov    $0x409d05,%r8d
  404b64:	b9 20 4a 40 00       	mov    $0x404a20,%ecx
  404b69:	31 d2                	xor    %edx,%edx
  404b6b:	4c 89 ef             	mov    %r13,%rdi
  404b6e:	31 c0                	xor    %eax,%eax
  404b70:	c7 04 24 12 00 00 00 	movl   $0x12,(%rsp)
  404b77:	e8 64 2a 00 00       	callq  4075e0 <XkwMakeCommand>
  404b7c:	48 8b 35 15 93 20 00 	mov    0x209315(%rip),%rsi        # 60de98 <canvas>
  404b83:	48 89 c2             	mov    %rax,%rdx
  404b86:	48 89 05 ab 92 20 00 	mov    %rax,0x2092ab(%rip)        # 60de38 <start>
  404b8d:	41 b9 7d 00 00 00    	mov    $0x7d,%r9d
  404b93:	41 b8 0b 9d 40 00    	mov    $0x409d0b,%r8d
  404b99:	b9 40 42 40 00       	mov    $0x404240,%ecx
  404b9e:	4c 89 ef             	mov    %r13,%rdi
  404ba1:	31 c0                	xor    %eax,%eax
  404ba3:	c7 04 24 12 00 00 00 	movl   $0x12,(%rsp)
  404baa:	e8 31 2a 00 00       	callq  4075e0 <XkwMakeCommand>
  404baf:	48 8b 35 e2 92 20 00 	mov    0x2092e2(%rip),%rsi        # 60de98 <canvas>
  404bb6:	48 89 c2             	mov    %rax,%rdx
  404bb9:	41 b9 7d 00 00 00    	mov    $0x7d,%r9d
  404bbf:	41 b8 10 9d 40 00    	mov    $0x409d10,%r8d
  404bc5:	b9 70 23 40 00       	mov    $0x402370,%ecx
  404bca:	4c 89 ef             	mov    %r13,%rdi
  404bcd:	31 c0                	xor    %eax,%eax
  404bcf:	c7 04 24 12 00 00 00 	movl   $0x12,(%rsp)
  404bd6:	e8 05 2a 00 00       	callq  4075e0 <XkwMakeCommand>
  404bdb:	48 8b 35 b6 92 20 00 	mov    0x2092b6(%rip),%rsi        # 60de98 <canvas>
  404be2:	48 89 c2             	mov    %rax,%rdx
  404be5:	41 b9 7d 00 00 00    	mov    $0x7d,%r9d
  404beb:	41 b8 80 9c 40 00    	mov    $0x409c80,%r8d
  404bf1:	b9 20 44 40 00       	mov    $0x404420,%ecx
  404bf6:	4c 89 ef             	mov    %r13,%rdi
  404bf9:	31 c0                	xor    %eax,%eax
  404bfb:	c7 04 24 12 00 00 00 	movl   $0x12,(%rsp)
  404c02:	e8 d9 29 00 00       	callq  4075e0 <XkwMakeCommand>
  404c07:	48 8b 35 8a 92 20 00 	mov    0x20928a(%rip),%rsi        # 60de98 <canvas>
  404c0e:	48 89 c2             	mov    %rax,%rdx
  404c11:	48 89 05 30 92 20 00 	mov    %rax,0x209230(%rip)        # 60de48 <draw>
  404c18:	41 b9 7d 00 00 00    	mov    $0x7d,%r9d
  404c1e:	41 b8 17 9d 40 00    	mov    $0x409d17,%r8d
  404c24:	b9 80 42 40 00       	mov    $0x404280,%ecx
  404c29:	4c 89 ef             	mov    %r13,%rdi
  404c2c:	31 c0                	xor    %eax,%eax
  404c2e:	c7 04 24 12 00 00 00 	movl   $0x12,(%rsp)
  404c35:	e8 a6 29 00 00       	callq  4075e0 <XkwMakeCommand>
  404c3a:	48 8b 35 f7 91 20 00 	mov    0x2091f7(%rip),%rsi        # 60de38 <start>
  404c41:	41 b9 7d 00 00 00    	mov    $0x7d,%r9d
  404c47:	41 b8 51 9c 40 00    	mov    $0x409c51,%r8d
  404c4d:	b9 70 3e 40 00       	mov    $0x403e70,%ecx
  404c52:	31 d2                	xor    %edx,%edx
  404c54:	4c 89 ef             	mov    %r13,%rdi
  404c57:	31 c0                	xor    %eax,%eax
  404c59:	c7 04 24 12 00 00 00 	movl   $0x12,(%rsp)
  404c60:	e8 7b 29 00 00       	callq  4075e0 <XkwMakeCommand>
  404c65:	48 8b 35 cc 91 20 00 	mov    0x2091cc(%rip),%rsi        # 60de38 <start>
  404c6c:	48 89 c2             	mov    %rax,%rdx
  404c6f:	48 89 05 da 91 20 00 	mov    %rax,0x2091da(%rip)        # 60de50 <persp>
  404c76:	41 b9 7d 00 00 00    	mov    $0x7d,%r9d
  404c7c:	41 b8 1c 9d 40 00    	mov    $0x409d1c,%r8d
  404c82:	b9 60 23 40 00       	mov    $0x402360,%ecx
  404c87:	4c 89 ef             	mov    %r13,%rdi
  404c8a:	31 c0                	xor    %eax,%eax
  404c8c:	c7 04 24 12 00 00 00 	movl   $0x12,(%rsp)
  404c93:	e8 48 29 00 00       	callq  4075e0 <XkwMakeCommand>
  404c98:	48 ba 00 00 00 00 00 	movabs $0xbff8000000000000,%rdx
  404c9f:	00 f8 bf 
  404ca2:	48 89 c6             	mov    %rax,%rsi
  404ca5:	48 b8 00 00 00 00 00 	movabs $0x3ff8000000000000,%rax
  404cac:	00 f8 3f 
  404caf:	48 89 54 24 40       	mov    %rdx,0x40(%rsp)
  404cb4:	48 89 44 24 48       	mov    %rax,0x48(%rsp)
  404cb9:	48 89 54 24 50       	mov    %rdx,0x50(%rsp)
  404cbe:	48 89 44 24 58       	mov    %rax,0x58(%rsp)
  404cc3:	48 89 54 24 60       	mov    %rdx,0x60(%rsp)
  404cc8:	48 89 44 24 68       	mov    %rax,0x68(%rsp)
  404ccd:	66 c7 05 aa 85 20 00 	movw   $0x58,0x2085aa(%rip)        # 60d280 <label_pos>
  404cd4:	58 00 
  404cd6:	66 c7 05 ab 85 20 00 	movw   $0x59,0x2085ab(%rip)        # 60d28a <label_pos+0xa>
  404cdd:	59 00 
  404cdf:	66 c7 05 ac 85 20 00 	movw   $0x5a,0x2085ac(%rip)        # 60d294 <label_pos+0x14>
  404ce6:	5a 00 
  404ce8:	48 8b 05 99 91 20 00 	mov    0x209199(%rip),%rax        # 60de88 <pole>
  404cef:	48 63 d3             	movslq %ebx,%rdx
  404cf2:	44 8b 0d a7 6b 20 00 	mov    0x206ba7(%rip),%r9d        # 60b8a0 <width>
  404cf9:	f2 41 0f 10 4c 24 f8 	movsd  -0x8(%r12),%xmm1
  404d00:	49 89 e8             	mov    %rbp,%r8
  404d03:	b9 40 23 40 00       	mov    $0x402340,%ecx
  404d08:	4c 89 ef             	mov    %r13,%rdi
  404d0b:	48 83 c5 0a          	add    $0xa,%rbp
  404d0f:	f2 0f 10 44 d0 38    	movsd  0x38(%rax,%rdx,8),%xmm0
  404d15:	c7 44 24 18 00 00 00 	movl   $0x0,0x18(%rsp)
  404d1c:	00 
  404d1d:	c7 44 24 10 00 00 00 	movl   $0x0,0x10(%rsp)
  404d24:	00 
  404d25:	c7 44 24 08 00 00 00 	movl   $0x0,0x8(%rsp)
  404d2c:	00 
  404d2d:	31 d2                	xor    %edx,%edx
  404d2f:	c7 04 24 00 00 00 00 	movl   $0x0,(%rsp)
  404d36:	b8 03 00 00 00       	mov    $0x3,%eax
  404d3b:	f2 41 0f 10 14 24    	movsd  (%r12),%xmm2
  404d41:	49 83 c4 10          	add    $0x10,%r12
  404d45:	e8 e6 21 00 00       	callq  406f30 <XkwMakeSlider>
  404d4a:	48 89 04 dd 20 de 60 	mov    %rax,0x60de20(,%rbx,8)
  404d51:	00 
  404d52:	48 83 c3 01          	add    $0x1,%rbx
  404d56:	48 89 c6             	mov    %rax,%rsi
  404d59:	48 83 fb 03          	cmp    $0x3,%rbx
  404d5d:	75 89                	jne    404ce8 <main+0x238>
  404d5f:	48 8b 05 22 91 20 00 	mov    0x209122(%rip),%rax        # 60de88 <pole>
  404d66:	48 bb 18 2d 44 54 fb 	movabs $0x3ff921fb54442d18,%rbx
  404d6d:	21 f9 3f 
  404d70:	49 bc 18 2d 44 54 fb 	movabs $0xbff921fb54442d18,%r12
  404d77:	21 f9 bf 
  404d7a:	44 8b 0d 1f 6b 20 00 	mov    0x206b1f(%rip),%r9d        # 60b8a0 <width>
  404d81:	4c 89 ef             	mov    %r13,%rdi
  404d84:	41 b8 21 9d 40 00    	mov    $0x409d21,%r8d
  404d8a:	b9 50 23 40 00       	mov    $0x402350,%ecx
  404d8f:	31 d2                	xor    %edx,%edx
  404d91:	f2 0f 10 40 08       	movsd  0x8(%rax),%xmm0
  404d96:	48 89 5c 24 28       	mov    %rbx,0x28(%rsp)
  404d9b:	b8 03 00 00 00       	mov    $0x3,%eax
  404da0:	f2 0f 10 54 24 28    	movsd  0x28(%rsp),%xmm2
  404da6:	4c 89 64 24 28       	mov    %r12,0x28(%rsp)
  404dab:	f2 0f 10 4c 24 28    	movsd  0x28(%rsp),%xmm1
  404db1:	c7 44 24 18 00 00 00 	movl   $0x0,0x18(%rsp)
  404db8:	00 
  404db9:	f2 0f 5c c2          	subsd  %xmm2,%xmm0
  404dbd:	48 89 5c 24 28       	mov    %rbx,0x28(%rsp)
  404dc2:	c7 44 24 10 01 00 00 	movl   $0x1,0x10(%rsp)
  404dc9:	00 
  404dca:	c7 44 24 08 00 00 00 	movl   $0x0,0x8(%rsp)
  404dd1:	00 
  404dd2:	c7 04 24 00 00 00 00 	movl   $0x0,(%rsp)
  404dd9:	e8 52 21 00 00       	callq  406f30 <XkwMakeSlider>
  404dde:	48 89 c6             	mov    %rax,%rsi
  404de1:	48 89 05 88 90 20 00 	mov    %rax,0x209088(%rip)        # 60de70 <slider_ang>
  404de8:	48 8b 05 99 90 20 00 	mov    0x209099(%rip),%rax        # 60de88 <pole>
  404def:	44 8b 0d aa 6a 20 00 	mov    0x206aaa(%rip),%r9d        # 60b8a0 <width>
  404df6:	41 b8 29 9d 40 00    	mov    $0x409d29,%r8d
  404dfc:	b9 50 23 40 00       	mov    $0x402350,%ecx
  404e01:	31 d2                	xor    %edx,%edx
  404e03:	4c 89 ef             	mov    %r13,%rdi
  404e06:	f2 0f 10 40 10       	movsd  0x10(%rax),%xmm0
  404e0b:	48 89 5c 24 28       	mov    %rbx,0x28(%rsp)
  404e10:	b8 03 00 00 00       	mov    $0x3,%eax
  404e15:	f2 0f 10 54 24 28    	movsd  0x28(%rsp),%xmm2
  404e1b:	4c 89 64 24 28       	mov    %r12,0x28(%rsp)
  404e20:	f2 0f 10 4c 24 28    	movsd  0x28(%rsp),%xmm1
  404e26:	c7 44 24 18 00 00 00 	movl   $0x0,0x18(%rsp)
  404e2d:	00 
  404e2e:	c7 44 24 10 01 00 00 	movl   $0x1,0x10(%rsp)
  404e35:	00 
  404e36:	c7 44 24 08 00 00 00 	movl   $0x0,0x8(%rsp)
  404e3d:	00 
  404e3e:	c7 04 24 00 00 00 00 	movl   $0x0,(%rsp)
  404e45:	e8 e6 20 00 00       	callq  406f30 <XkwMakeSlider>
  404e4a:	48 8b 3d 07 90 20 00 	mov    0x209007(%rip),%rdi        # 60de58 <toplevel>
  404e51:	48 89 05 20 90 20 00 	mov    %rax,0x209020(%rip)        # 60de78 <slider_ang+0x8>
  404e58:	e8 3b cf ff ff       	callq  401d98 <XtRealizeWidget@plt>
  404e5d:	48 8b 3d 34 90 20 00 	mov    0x209034(%rip),%rdi        # 60de98 <canvas>
  404e64:	e8 4f d1 ff ff       	callq  401fb8 <XtDisplay@plt>
  404e69:	48 8b 3d 28 90 20 00 	mov    0x209028(%rip),%rdi        # 60de98 <canvas>
  404e70:	48 89 05 e9 8f 20 00 	mov    %rax,0x208fe9(%rip)        # 60de60 <display>
  404e77:	e8 cc ce ff ff       	callq  401d48 <XtWindow@plt>
  404e7c:	48 8b 3d dd 8f 20 00 	mov    0x208fdd(%rip),%rdi        # 60de60 <display>
  404e83:	48 89 05 f6 8f 20 00 	mov    %rax,0x208ff6(%rip)        # 60de80 <window>
  404e8a:	48 89 c6             	mov    %rax,%rsi
  404e8d:	31 c9                	xor    %ecx,%ecx
  404e8f:	48 63 87 e0 00 00 00 	movslq 0xe0(%rdi),%rax
  404e96:	89 05 6c 8f 20 00    	mov    %eax,0x208f6c(%rip)        # 60de08 <screen>
  404e9c:	48 8b 97 e8 00 00 00 	mov    0xe8(%rdi),%rdx
  404ea3:	48 c1 e0 07          	shl    $0x7,%rax
  404ea7:	48 8b 54 02 60       	mov    0x60(%rdx,%rax,1),%rdx
  404eac:	48 89 15 8d 8f 20 00 	mov    %rdx,0x208f8d(%rip)        # 60de40 <foreground>
  404eb3:	48 8b 97 e8 00 00 00 	mov    0xe8(%rdi),%rdx
  404eba:	48 8b 44 10 58       	mov    0x58(%rax,%rdx,1),%rax
  404ebf:	31 d2                	xor    %edx,%edx
  404ec1:	48 89 05 38 8f 20 00 	mov    %rax,0x208f38(%rip)        # 60de00 <background>
  404ec8:	e8 cb d1 ff ff       	callq  402098 <XCreateGC@plt>
  404ecd:	48 8b 3d 8c 8f 20 00 	mov    0x208f8c(%rip),%rdi        # 60de60 <display>
  404ed4:	48 89 c6             	mov    %rax,%rsi
  404ed7:	ba 03 00 00 00       	mov    $0x3,%edx
  404edc:	48 89 05 d5 8f 20 00 	mov    %rax,0x208fd5(%rip)        # 60deb8 <gc>
  404ee3:	e8 20 d1 ff ff       	callq  402008 <XSetFunction@plt>
  404ee8:	48 8b 15 51 8f 20 00 	mov    0x208f51(%rip),%rdx        # 60de40 <foreground>
  404eef:	48 8b 35 c2 8f 20 00 	mov    0x208fc2(%rip),%rsi        # 60deb8 <gc>
  404ef6:	48 8b 3d 63 8f 20 00 	mov    0x208f63(%rip),%rdi        # 60de60 <display>
  404efd:	e8 66 d0 ff ff       	callq  401f68 <XSetForeground@plt>
  404f02:	48 8b 15 f7 8e 20 00 	mov    0x208ef7(%rip),%rdx        # 60de00 <background>
  404f09:	48 8b 35 a8 8f 20 00 	mov    0x208fa8(%rip),%rsi        # 60deb8 <gc>
  404f10:	48 8b 3d 49 8f 20 00 	mov    0x208f49(%rip),%rdi        # 60de60 <display>
  404f17:	e8 dc d0 ff ff       	callq  401ff8 <XSetBackground@plt>
  404f1c:	48 8b 3d 3d 8f 20 00 	mov    0x208f3d(%rip),%rdi        # 60de60 <display>
  404f23:	8b 35 df 8e 20 00    	mov    0x208edf(%rip),%esi        # 60de08 <screen>
  404f29:	48 8b 97 e8 00 00 00 	mov    0xe8(%rdi),%rdx
  404f30:	48 63 c6             	movslq %esi,%rax
  404f33:	48 c1 e0 07          	shl    $0x7,%rax
  404f37:	44 8b 64 10 38       	mov    0x38(%rax,%rdx,1),%r12d
  404f3c:	e8 17 d1 ff ff       	callq  402058 <XDisplayHeight@plt>
  404f41:	8b 35 c1 8e 20 00    	mov    0x208ec1(%rip),%esi        # 60de08 <screen>
  404f47:	48 8b 3d 12 8f 20 00 	mov    0x208f12(%rip),%rdi        # 60de60 <display>
  404f4e:	89 c3                	mov    %eax,%ebx
  404f50:	e8 b3 ce ff ff       	callq  401e08 <XDisplayWidth@plt>
  404f55:	48 8b 35 24 8f 20 00 	mov    0x208f24(%rip),%rsi        # 60de80 <window>
  404f5c:	48 8b 3d fd 8e 20 00 	mov    0x208efd(%rip),%rdi        # 60de60 <display>
  404f63:	45 89 e0             	mov    %r12d,%r8d
  404f66:	89 d9                	mov    %ebx,%ecx
  404f68:	89 c2                	mov    %eax,%edx
  404f6a:	e8 69 d2 ff ff       	callq  4021d8 <XCreatePixmap@plt>
  404f6f:	48 8b 3d d2 8e 20 00 	mov    0x208ed2(%rip),%rdi        # 60de48 <draw>
  404f76:	48 89 05 13 8f 20 00 	mov    %rax,0x208f13(%rip)        # 60de90 <pixmap>
  404f7d:	31 c0                	xor    %eax,%eax
  404f7f:	e8 7c 16 00 00       	callq  406600 <XkwWidgetHighlight>
  404f84:	31 c0                	xor    %eax,%eax
  404f86:	e8 05 f8 ff ff       	callq  404790 <x_rot_proc>
  404f8b:	31 c0                	xor    %eax,%eax
  404f8d:	e8 8e f1 ff ff       	callq  404120 <x_clear>
  404f92:	48 8b 3d 77 8e 20 00 	mov    0x208e77(%rip),%rdi        # 60de10 <app_con>
  404f99:	e8 9a cf ff ff       	callq  401f38 <XtAppMainLoop@plt>
  404f9e:	48 83 c4 78          	add    $0x78,%rsp
  404fa2:	31 c0                	xor    %eax,%eax
  404fa4:	5b                   	pop    %rbx
  404fa5:	5d                   	pop    %rbp
  404fa6:	41 5c                	pop    %r12
  404fa8:	41 5d                	pop    %r13
  404faa:	c3                   	retq   
  404fab:	90                   	nop
  404fac:	90                   	nop
  404fad:	90                   	nop
  404fae:	90                   	nop
  404faf:	90                   	nop

0000000000404fb0 <init_pole>:
  404fb0:	48 8b 05 d1 8e 20 00 	mov    0x208ed1(%rip),%rax        # 60de88 <pole>
  404fb7:	31 d2                	xor    %edx,%edx
  404fb9:	31 c9                	xor    %ecx,%ecx
  404fbb:	c7 00 01 00 00 00    	movl   $0x1,(%rax)
  404fc1:	48 8b 05 c0 8e 20 00 	mov    0x208ec0(%rip),%rax        # 60de88 <pole>
  404fc8:	48 89 50 38          	mov    %rdx,0x38(%rax)
  404fcc:	48 8b 05 b5 8e 20 00 	mov    0x208eb5(%rip),%rax        # 60de88 <pole>
  404fd3:	48 89 50 50          	mov    %rdx,0x50(%rax)
  404fd7:	48 8b 05 aa 8e 20 00 	mov    0x208eaa(%rip),%rax        # 60de88 <pole>
  404fde:	48 89 50 68          	mov    %rdx,0x68(%rax)
  404fe2:	31 d2                	xor    %edx,%edx
  404fe4:	48 8b 05 9d 8e 20 00 	mov    0x208e9d(%rip),%rax        # 60de88 <pole>
  404feb:	83 c1 01             	add    $0x1,%ecx
  404fee:	83 f9 02             	cmp    $0x2,%ecx
  404ff1:	48 c7 44 d0 18 00 00 	movq   $0x0,0x18(%rax,%rdx,8)
  404ff8:	00 00 
  404ffa:	48 8b 05 87 8e 20 00 	mov    0x208e87(%rip),%rax        # 60de88 <pole>
  405001:	48 c7 44 d0 28 00 00 	movq   $0x0,0x28(%rax,%rdx,8)
  405008:	00 00 
  40500a:	7f 44                	jg     405050 <init_pole+0xa0>
  40500c:	0f 1f 40 00          	nopl   0x0(%rax)
  405010:	48 8b 05 71 8e 20 00 	mov    0x208e71(%rip),%rax        # 60de88 <pole>
  405017:	48 63 d1             	movslq %ecx,%rdx
  40501a:	83 f9 01             	cmp    $0x1,%ecx
  40501d:	48 c7 44 d0 38 00 00 	movq   $0x0,0x38(%rax,%rdx,8)
  405024:	00 00 
  405026:	48 8b 05 5b 8e 20 00 	mov    0x208e5b(%rip),%rax        # 60de88 <pole>
  40502d:	48 c7 44 d0 50 00 00 	movq   $0x0,0x50(%rax,%rdx,8)
  405034:	00 00 
  405036:	48 8b 05 4b 8e 20 00 	mov    0x208e4b(%rip),%rax        # 60de88 <pole>
  40503d:	48 c7 44 d0 68 00 00 	movq   $0x0,0x68(%rax,%rdx,8)
  405044:	00 00 
  405046:	7e 9c                	jle    404fe4 <init_pole+0x34>
  405048:	83 c1 01             	add    $0x1,%ecx
  40504b:	83 f9 02             	cmp    $0x2,%ecx
  40504e:	7e c0                	jle    405010 <init_pole+0x60>
  405050:	48 8b 05 31 8e 20 00 	mov    0x208e31(%rip),%rax        # 60de88 <pole>
  405057:	48 ba 18 2d 44 54 fb 	movabs $0x3ff921fb54442d18,%rdx
  40505e:	21 f9 3f 
  405061:	48 89 50 08          	mov    %rdx,0x8(%rax)
  405065:	48 8b 05 1c 8e 20 00 	mov    0x208e1c(%rip),%rax        # 60de88 <pole>
  40506c:	48 c7 40 10 00 00 00 	movq   $0x0,0x10(%rax)
  405073:	00 
  405074:	48 8b 05 0d 8e 20 00 	mov    0x208e0d(%rip),%rax        # 60de88 <pole>
  40507b:	48 c7 80 80 00 00 00 	movq   $0x0,0x80(%rax)
  405082:	00 00 00 00 
  405086:	c3                   	retq   
  405087:	66 0f 1f 84 00 00 00 	nopw   0x0(%rax,%rax,1)
  40508e:	00 00 

0000000000405090 <pole_dyn>:
  405090:	41 54                	push   %r12
  405092:	49 89 fc             	mov    %rdi,%r12
  405095:	55                   	push   %rbp
  405096:	53                   	push   %rbx
  405097:	48 83 ec 50          	sub    $0x50,%rsp
  40509b:	48 8b 2d e6 8d 20 00 	mov    0x208de6(%rip),%rbp        # 60de88 <pole>
  4050a2:	f2 0f 11 44 24 48    	movsd  %xmm0,0x48(%rsp)
  4050a8:	48 8b 5d 08          	mov    0x8(%rbp),%rbx
  4050ac:	48 89 5c 24 08       	mov    %rbx,0x8(%rsp)
  4050b1:	f2 0f 10 44 24 08    	movsd  0x8(%rsp),%xmm0
  4050b7:	e8 6c d1 ff ff       	callq  402228 <sin@plt>
  4050bc:	66 44 0f 28 f8       	movapd %xmm0,%xmm15
  4050c1:	48 89 5c 24 08       	mov    %rbx,0x8(%rsp)
  4050c6:	f2 0f 10 44 24 08    	movsd  0x8(%rsp),%xmm0
  4050cc:	f2 44 0f 11 7c 24 10 	movsd  %xmm15,0x10(%rsp)
  4050d3:	e8 90 cd ff ff       	callq  401e68 <cos@plt>
  4050d8:	48 8b 5d 10          	mov    0x10(%rbp),%rbx
  4050dc:	66 44 0f 28 f0       	movapd %xmm0,%xmm14
  4050e1:	f2 44 0f 11 74 24 20 	movsd  %xmm14,0x20(%rsp)
  4050e8:	48 89 5c 24 08       	mov    %rbx,0x8(%rsp)
  4050ed:	f2 0f 10 44 24 08    	movsd  0x8(%rsp),%xmm0
  4050f3:	e8 30 d1 ff ff       	callq  402228 <sin@plt>
  4050f8:	66 44 0f 28 d8       	movapd %xmm0,%xmm11
  4050fd:	48 89 5c 24 08       	mov    %rbx,0x8(%rsp)
  405102:	f2 0f 10 44 24 08    	movsd  0x8(%rsp),%xmm0
  405108:	f2 44 0f 11 5c 24 30 	movsd  %xmm11,0x30(%rsp)
  40510f:	e8 54 cd ff ff       	callq  401e68 <cos@plt>
  405114:	83 7d 00 03          	cmpl   $0x3,0x0(%rbp)
  405118:	66 44 0f 28 e0       	movapd %xmm0,%xmm12
  40511d:	f2 44 0f 10 5c 24 30 	movsd  0x30(%rsp),%xmm11
  405124:	f2 44 0f 10 74 24 20 	movsd  0x20(%rsp),%xmm14
  40512b:	f2 44 0f 10 7c 24 10 	movsd  0x10(%rsp),%xmm15
  405132:	0f 84 7e 05 00 00    	je     4056b6 <pole_dyn+0x626>
  405138:	f2 0f 10 4d 18       	movsd  0x18(%rbp),%xmm1
  40513d:	66 44 0f 28 e8       	movapd %xmm0,%xmm13
  405142:	66 0f 57 db          	xorpd  %xmm3,%xmm3
  405146:	f2 0f 59 c9          	mulsd  %xmm1,%xmm1
  40514a:	f2 44 0f 10 05 6d 4d 	movsd  0x4d6d(%rip),%xmm8        # 409ec0 <__dso_handle+0x298>
  405151:	00 00 
  405153:	f2 44 0f 59 e8       	mulsd  %xmm0,%xmm13
  405158:	f2 0f 10 45 20       	movsd  0x20(%rbp),%xmm0
  40515d:	f2 0f c2 5d 50 05    	cmpnltsd 0x50(%rbp),%xmm3
  405163:	66 0f 57 e4          	xorpd  %xmm4,%xmm4
  405167:	f2 0f 59 c0          	mulsd  %xmm0,%xmm0
  40516b:	f2 41 0f 10 14 24    	movsd  (%r12),%xmm2
  405171:	f2 0f 59 0d d7 4c 00 	mulsd  0x4cd7(%rip),%xmm1        # 409e50 <__dso_handle+0x228>
  405178:	00 
  405179:	66 41 0f 54 d8       	andpd  %xmm8,%xmm3
  40517e:	66 0f 57 f6          	xorpd  %xmm6,%xmm6
  405182:	f2 41 0f 10 6c 24 08 	movsd  0x8(%r12),%xmm5
  405189:	66 41 0f 28 ff       	movapd %xmm15,%xmm7
  40518e:	f2 0f 59 05 f2 4c 00 	mulsd  0x4cf2(%rip),%xmm0        # 409e88 <__dso_handle+0x260>
  405195:	00 
  405196:	66 0f 56 dc          	orpd   %xmm4,%xmm3
  40519a:	f2 0f c2 65 58 05    	cmpnltsd 0x58(%rbp),%xmm4
  4051a0:	f2 41 0f 59 ff       	mulsd  %xmm15,%xmm7
  4051a5:	f2 0f 59 0d ab 4c 00 	mulsd  0x4cab(%rip),%xmm1        # 409e58 <__dso_handle+0x230>
  4051ac:	00 
  4051ad:	66 41 0f 54 e0       	andpd  %xmm8,%xmm4
  4051b2:	f2 0f 5c d3          	subsd  %xmm3,%xmm2
  4051b6:	f2 0f 59 05 9a 4c 00 	mulsd  0x4c9a(%rip),%xmm0        # 409e58 <__dso_handle+0x230>
  4051bd:	00 
  4051be:	66 0f 56 e6          	orpd   %xmm6,%xmm4
  4051c2:	f2 0f 10 35 fe 4c 00 	movsd  0x4cfe(%rip),%xmm6        # 409ec8 <__dso_handle+0x2a0>
  4051c9:	00 
  4051ca:	f2 0f 59 15 fe 4c 00 	mulsd  0x4cfe(%rip),%xmm2        # 409ed0 <__dso_handle+0x2a8>
  4051d1:	00 
  4051d2:	f2 41 0f 59 cf       	mulsd  %xmm15,%xmm1
  4051d7:	66 44 0f 28 d6       	movapd %xmm6,%xmm10
  4051dc:	f2 0f 5c ec          	subsd  %xmm4,%xmm5
  4051e0:	f2 0f 11 74 24 40    	movsd  %xmm6,0x40(%rsp)
  4051e6:	f2 44 0f 59 d7       	mulsd  %xmm7,%xmm10
  4051eb:	f2 41 0f 59 c7       	mulsd  %xmm15,%xmm0
  4051f0:	f2 41 0f 59 ce       	mulsd  %xmm14,%xmm1
  4051f5:	f2 41 0f 59 d6       	mulsd  %xmm14,%xmm2
  4051fa:	f2 41 0f 59 c6       	mulsd  %xmm14,%xmm0
  4051ff:	f2 41 0f 59 cd       	mulsd  %xmm13,%xmm1
  405204:	f2 41 0f 59 d3       	mulsd  %xmm11,%xmm2
  405209:	f2 0f 58 c8          	addsd  %xmm0,%xmm1
  40520d:	66 41 0f 28 c7       	movapd %xmm15,%xmm0
  405212:	f2 0f 59 05 36 4c 00 	mulsd  0x4c36(%rip),%xmm0        # 409e50 <__dso_handle+0x228>
  405219:	00 
  40521a:	f2 0f 58 ca          	addsd  %xmm2,%xmm1
  40521e:	66 41 0f 28 d3       	movapd %xmm11,%xmm2
  405223:	f2 41 0f 59 d3       	mulsd  %xmm11,%xmm2
  405228:	f2 0f 59 c2          	mulsd  %xmm2,%xmm0
  40522c:	f2 41 0f 58 c7       	addsd  %xmm15,%xmm0
  405231:	f2 0f 59 e8          	mulsd  %xmm0,%xmm5
  405235:	66 41 0f 28 c6       	movapd %xmm14,%xmm0
  40523a:	f2 0f 59 05 96 4c 00 	mulsd  0x4c96(%rip),%xmm0        # 409ed8 <__dso_handle+0x2b0>
  405241:	00 
  405242:	f2 0f 5c cd          	subsd  %xmm5,%xmm1
  405246:	66 0f 57 ed          	xorpd  %xmm5,%xmm5
  40524a:	f2 41 0f 59 c4       	mulsd  %xmm12,%xmm0
  40524f:	f2 0f 58 c8          	addsd  %xmm0,%xmm1
  405253:	66 41 0f 28 c5       	movapd %xmm13,%xmm0
  405258:	f2 41 0f 59 c2       	mulsd  %xmm10,%xmm0
  40525d:	f2 45 0f 59 d7       	mulsd  %xmm15,%xmm10
  405262:	f2 0f 58 05 1e 4c 00 	addsd  0x4c1e(%rip),%xmm0        # 409e88 <__dso_handle+0x260>
  405269:	00 
  40526a:	f2 0f 59 05 e6 4b 00 	mulsd  0x4be6(%rip),%xmm0        # 409e58 <__dso_handle+0x230>
  405271:	00 
  405272:	f2 0f 5e c8          	divsd  %xmm0,%xmm1
  405276:	66 0f 57 c0          	xorpd  %xmm0,%xmm0
  40527a:	66 0f 28 f0          	movapd %xmm0,%xmm6
  40527e:	f2 0f 11 4d 28       	movsd  %xmm1,0x28(%rbp)
  405283:	48 8b 05 fe 8b 20 00 	mov    0x208bfe(%rip),%rax        # 60de88 <pole>
  40528a:	f2 41 0f 10 5c 24 08 	movsd  0x8(%r12),%xmm3
  405291:	f2 0f c2 68 50 05    	cmpnltsd 0x50(%rax),%xmm5
  405297:	f2 0f 10 50 20       	movsd  0x20(%rax),%xmm2
  40529c:	f2 0f c2 70 58 05    	cmpnltsd 0x58(%rax),%xmm6
  4052a2:	f2 0f 10 60 18       	movsd  0x18(%rax),%xmm4
  4052a7:	66 41 0f 54 e8       	andpd  %xmm8,%xmm5
  4052ac:	66 41 0f 54 f0       	andpd  %xmm8,%xmm6
  4052b1:	66 0f 28 cc          	movapd %xmm4,%xmm1
  4052b5:	f2 44 0f 10 05 a2 4b 	movsd  0x4ba2(%rip),%xmm8        # 409e60 <__dso_handle+0x238>
  4052bc:	00 00 
  4052be:	66 0f 56 e8          	orpd   %xmm0,%xmm5
  4052c2:	f2 0f 59 cc          	mulsd  %xmm4,%xmm1
  4052c6:	66 0f 56 f0          	orpd   %xmm0,%xmm6
  4052ca:	66 0f 28 c2          	movapd %xmm2,%xmm0
  4052ce:	f2 0f 58 e4          	addsd  %xmm4,%xmm4
  4052d2:	f2 45 0f 10 0c 24    	movsd  (%r12),%xmm9
  4052d8:	f2 0f 59 c2          	mulsd  %xmm2,%xmm0
  4052dc:	f2 0f 59 4c 24 40    	mulsd  0x40(%rsp),%xmm1
  4052e2:	f2 0f 5c de          	subsd  %xmm6,%xmm3
  4052e6:	f2 0f 59 d4          	mulsd  %xmm4,%xmm2
  4052ea:	f2 0f 10 64 24 40    	movsd  0x40(%rsp),%xmm4
  4052f0:	f2 0f 59 05 58 4b 00 	mulsd  0x4b58(%rip),%xmm0        # 409e50 <__dso_handle+0x228>
  4052f7:	00 
  4052f8:	f2 41 0f 59 e6       	mulsd  %xmm14,%xmm4
  4052fd:	f2 41 0f 59 df       	mulsd  %xmm15,%xmm3
  405302:	f2 0f 59 0d 4e 4b 00 	mulsd  0x4b4e(%rip),%xmm1        # 409e58 <__dso_handle+0x230>
  405309:	00 
  40530a:	f2 41 0f 59 d0       	mulsd  %xmm8,%xmm2
  40530f:	f2 44 0f 5c cd       	subsd  %xmm5,%xmm9
  405314:	f2 41 0f 59 c0       	mulsd  %xmm8,%xmm0
  405319:	f2 41 0f 59 de       	mulsd  %xmm14,%xmm3
  40531e:	f2 41 0f 59 cf       	mulsd  %xmm15,%xmm1
  405323:	f2 41 0f 59 c7       	mulsd  %xmm15,%xmm0
  405328:	f2 41 0f 59 db       	mulsd  %xmm11,%xmm3
  40532d:	f2 41 0f 59 cb       	mulsd  %xmm11,%xmm1
  405332:	f2 0f 59 c7          	mulsd  %xmm7,%xmm0
  405336:	f2 0f 59 fc          	mulsd  %xmm4,%xmm7
  40533a:	f2 41 0f 59 dc       	mulsd  %xmm12,%xmm3
  40533f:	f2 41 0f 59 cc       	mulsd  %xmm12,%xmm1
  405344:	f2 41 0f 59 c3       	mulsd  %xmm11,%xmm0
  405349:	f2 41 0f 59 fd       	mulsd  %xmm13,%xmm7
  40534e:	f2 45 0f 59 ea       	mulsd  %xmm10,%xmm13
  405353:	f2 41 0f 59 c4       	mulsd  %xmm12,%xmm0
  405358:	f2 0f 58 c8          	addsd  %xmm0,%xmm1
  40535c:	66 41 0f 28 c6       	movapd %xmm14,%xmm0
  405361:	f2 0f 59 05 1f 4b 00 	mulsd  0x4b1f(%rip),%xmm0        # 409e88 <__dso_handle+0x260>
  405368:	00 
  405369:	f2 0f 58 c7          	addsd  %xmm7,%xmm0
  40536d:	f2 0f 59 d0          	mulsd  %xmm0,%xmm2
  405371:	66 41 0f 28 c6       	movapd %xmm14,%xmm0
  405376:	f2 41 0f 59 c6       	mulsd  %xmm14,%xmm0
  40537b:	f2 0f 58 ca          	addsd  %xmm2,%xmm1
  40537f:	f2 0f 59 05 c9 4a 00 	mulsd  0x4ac9(%rip),%xmm0        # 409e50 <__dso_handle+0x228>
  405386:	00 
  405387:	f2 41 0f 59 c4       	mulsd  %xmm12,%xmm0
  40538c:	f2 41 0f 58 c4       	addsd  %xmm12,%xmm0
  405391:	f2 44 0f 59 c8       	mulsd  %xmm0,%xmm9
  405396:	66 41 0f 28 c3       	movapd %xmm11,%xmm0
  40539b:	f2 0f 59 05 3d 4b 00 	mulsd  0x4b3d(%rip),%xmm0        # 409ee0 <__dso_handle+0x2b8>
  4053a2:	00 
  4053a3:	f2 41 0f 5c c9       	subsd  %xmm9,%xmm1
  4053a8:	f2 0f 5c cb          	subsd  %xmm3,%xmm1
  4053ac:	f2 0f 58 c8          	addsd  %xmm0,%xmm1
  4053b0:	66 41 0f 28 c7       	movapd %xmm15,%xmm0
  4053b5:	f2 0f 59 05 cb 4a 00 	mulsd  0x4acb(%rip),%xmm0        # 409e88 <__dso_handle+0x260>
  4053bc:	00 
  4053bd:	f2 41 0f 58 c5       	addsd  %xmm13,%xmm0
  4053c2:	f2 0f 59 05 8e 4a 00 	mulsd  0x4a8e(%rip),%xmm0        # 409e58 <__dso_handle+0x230>
  4053c9:	00 
  4053ca:	f2 0f 5e c8          	divsd  %xmm0,%xmm1
  4053ce:	f2 0f 11 48 30       	movsd  %xmm1,0x30(%rax)
  4053d3:	48 8b 05 ae 8a 20 00 	mov    0x208aae(%rip),%rax        # 60de88 <pole>
  4053da:	66 0f 57 c0          	xorpd  %xmm0,%xmm0
  4053de:	66 0f 57 f6          	xorpd  %xmm6,%xmm6
  4053e2:	f2 0f 10 3d d6 4a 00 	movsd  0x4ad6(%rip),%xmm7        # 409ec0 <__dso_handle+0x298>
  4053e9:	00 
  4053ea:	f2 0f c2 40 50 05    	cmpnltsd 0x50(%rax),%xmm0
  4053f0:	f2 41 0f 10 2c 24    	movsd  (%r12),%xmm5
  4053f6:	f2 0f 10 60 18       	movsd  0x18(%rax),%xmm4
  4053fb:	66 0f 28 c8          	movapd %xmm0,%xmm1
  4053ff:	66 0f 55 c6          	andnpd %xmm6,%xmm0
  405403:	f2 0f 10 58 20       	movsd  0x20(%rax),%xmm3
  405408:	66 0f 54 cf          	andpd  %xmm7,%xmm1
  40540c:	66 0f 28 d3          	movapd %xmm3,%xmm2
  405410:	f2 0f 10 35 d0 4a 00 	movsd  0x4ad0(%rip),%xmm6        # 409ee8 <__dso_handle+0x2c0>
  405417:	00 
  405418:	66 0f 56 c1          	orpd   %xmm1,%xmm0
  40541c:	f2 0f 59 d3          	mulsd  %xmm3,%xmm2
  405420:	66 41 0f 28 ce       	movapd %xmm14,%xmm1
  405425:	f2 0f 5c e8          	subsd  %xmm0,%xmm5
  405429:	66 41 0f 28 c7       	movapd %xmm15,%xmm0
  40542e:	f2 0f 59 48 28       	mulsd  0x28(%rax),%xmm1
  405433:	f2 0f 59 40 30       	mulsd  0x30(%rax),%xmm0
  405438:	f2 41 0f 59 cb       	mulsd  %xmm11,%xmm1
  40543d:	f2 41 0f 59 c4       	mulsd  %xmm12,%xmm0
  405442:	f2 0f 58 c8          	addsd  %xmm0,%xmm1
  405446:	66 0f 28 c4          	movapd %xmm4,%xmm0
  40544a:	f2 0f 59 c4          	mulsd  %xmm4,%xmm0
  40544e:	f2 0f 58 e4          	addsd  %xmm4,%xmm4
  405452:	f2 0f 58 c2          	addsd  %xmm2,%xmm0
  405456:	f2 0f 59 dc          	mulsd  %xmm4,%xmm3
  40545a:	f2 41 0f 59 c7       	mulsd  %xmm15,%xmm0
  40545f:	f2 41 0f 59 de       	mulsd  %xmm14,%xmm3
  405464:	f2 41 0f 59 c3       	mulsd  %xmm11,%xmm0
  405469:	f2 41 0f 59 dc       	mulsd  %xmm12,%xmm3
  40546e:	f2 0f 5c c8          	subsd  %xmm0,%xmm1
  405472:	f2 0f 58 cb          	addsd  %xmm3,%xmm1
  405476:	f2 0f 59 ce          	mulsd  %xmm6,%xmm1
  40547a:	f2 0f 58 e9          	addsd  %xmm1,%xmm5
  40547e:	f2 0f 5e 2d 02 4a 00 	divsd  0x4a02(%rip),%xmm5        # 409e88 <__dso_handle+0x260>
  405485:	00 
  405486:	f2 0f 11 68 68       	movsd  %xmm5,0x68(%rax)
  40548b:	48 8b 2d f6 89 20 00 	mov    0x2089f6(%rip),%rbp        # 60de88 <pole>
  405492:	83 7d 00 01          	cmpl   $0x1,0x0(%rbp)
  405496:	7e 61                	jle    4054f9 <pole_dyn+0x469>
  405498:	66 0f 57 c0          	xorpd  %xmm0,%xmm0
  40549c:	66 0f 57 db          	xorpd  %xmm3,%xmm3
  4054a0:	f2 41 0f 10 54 24 08 	movsd  0x8(%r12),%xmm2
  4054a7:	f2 0f c2 45 58 05    	cmpnltsd 0x58(%rbp),%xmm0
  4054ad:	66 0f 28 c8          	movapd %xmm0,%xmm1
  4054b1:	66 0f 55 c3          	andnpd %xmm3,%xmm0
  4054b5:	66 0f 54 cf          	andpd  %xmm7,%xmm1
  4054b9:	66 0f 56 c1          	orpd   %xmm1,%xmm0
  4054bd:	f2 0f 10 4d 18       	movsd  0x18(%rbp),%xmm1
  4054c2:	f2 0f 5c d0          	subsd  %xmm0,%xmm2
  4054c6:	66 41 0f 28 c7       	movapd %xmm15,%xmm0
  4054cb:	f2 0f 59 c9          	mulsd  %xmm1,%xmm1
  4054cf:	f2 0f 59 45 28       	mulsd  0x28(%rbp),%xmm0
  4054d4:	f2 41 0f 59 ce       	mulsd  %xmm14,%xmm1
  4054d9:	f2 0f 58 c1          	addsd  %xmm1,%xmm0
  4054dd:	f2 0f 59 c6          	mulsd  %xmm6,%xmm0
  4054e1:	f2 0f 58 d0          	addsd  %xmm0,%xmm2
  4054e5:	f2 0f 5e 15 9b 49 00 	divsd  0x499b(%rip),%xmm2        # 409e88 <__dso_handle+0x260>
  4054ec:	00 
  4054ed:	f2 0f 11 55 70       	movsd  %xmm2,0x70(%rbp)
  4054f2:	48 8b 2d 8f 89 20 00 	mov    0x20898f(%rip),%rbp        # 60de88 <pole>
  4054f9:	83 7d 00 02          	cmpl   $0x2,0x0(%rbp)
  4054fd:	0f 8e b5 00 00 00    	jle    4055b8 <pole_dyn+0x528>
  405503:	66 0f 57 c0          	xorpd  %xmm0,%xmm0
  405507:	66 0f 57 ed          	xorpd  %xmm5,%xmm5
  40550b:	f2 41 0f 10 64 24 10 	movsd  0x10(%r12),%xmm4
  405512:	f2 0f c2 45 60 05    	cmpnltsd 0x60(%rbp),%xmm0
  405518:	f2 0f 10 5d 20       	movsd  0x20(%rbp),%xmm3
  40551d:	66 0f 28 c8          	movapd %xmm0,%xmm1
  405521:	66 0f 55 c5          	andnpd %xmm5,%xmm0
  405525:	66 0f 28 d3          	movapd %xmm3,%xmm2
  405529:	66 0f 54 cf          	andpd  %xmm7,%xmm1
  40552d:	f2 0f 10 6d 18       	movsd  0x18(%rbp),%xmm5
  405532:	f2 0f 59 d3          	mulsd  %xmm3,%xmm2
  405536:	66 0f 56 c1          	orpd   %xmm1,%xmm0
  40553a:	66 41 0f 28 ce       	movapd %xmm14,%xmm1
  40553f:	f2 0f 5c e0          	subsd  %xmm0,%xmm4
  405543:	66 41 0f 28 c7       	movapd %xmm15,%xmm0
  405548:	f2 0f 59 4d 28       	mulsd  0x28(%rbp),%xmm1
  40554d:	f2 0f 59 45 30       	mulsd  0x30(%rbp),%xmm0
  405552:	f2 41 0f 59 cc       	mulsd  %xmm12,%xmm1
  405557:	f2 41 0f 59 c3       	mulsd  %xmm11,%xmm0
  40555c:	f2 0f 5c c8          	subsd  %xmm0,%xmm1
  405560:	66 0f 28 c5          	movapd %xmm5,%xmm0
  405564:	f2 0f 59 c5          	mulsd  %xmm5,%xmm0
  405568:	f2 0f 59 2d 80 49 00 	mulsd  0x4980(%rip),%xmm5        # 409ef0 <__dso_handle+0x2c8>
  40556f:	00 
  405570:	f2 0f 58 c2          	addsd  %xmm2,%xmm0
  405574:	f2 0f 59 dd          	mulsd  %xmm5,%xmm3
  405578:	f2 41 0f 59 c7       	mulsd  %xmm15,%xmm0
  40557d:	f2 41 0f 59 de       	mulsd  %xmm14,%xmm3
  405582:	f2 41 0f 59 c4       	mulsd  %xmm12,%xmm0
  405587:	f2 41 0f 59 db       	mulsd  %xmm11,%xmm3
  40558c:	f2 0f 5c c8          	subsd  %xmm0,%xmm1
  405590:	f2 0f 58 cb          	addsd  %xmm3,%xmm1
  405594:	f2 0f 59 ce          	mulsd  %xmm6,%xmm1
  405598:	f2 0f 58 e1          	addsd  %xmm1,%xmm4
  40559c:	f2 0f 5e 25 e4 48 00 	divsd  0x48e4(%rip),%xmm4        # 409e88 <__dso_handle+0x260>
  4055a3:	00 
  4055a4:	f2 0f 5c 25 4c 49 00 	subsd  0x494c(%rip),%xmm4        # 409ef8 <__dso_handle+0x2d0>
  4055ab:	00 
  4055ac:	f2 0f 11 65 78       	movsd  %xmm4,0x78(%rbp)
  4055b1:	48 8b 2d d0 88 20 00 	mov    0x2088d0(%rip),%rbp        # 60de88 <pole>
  4055b8:	8b 4d 00             	mov    0x0(%rbp),%ecx
  4055bb:	48 89 ea             	mov    %rbp,%rdx
  4055be:	85 c9                	test   %ecx,%ecx
  4055c0:	0f 8e d1 00 00 00    	jle    405697 <pole_dyn+0x607>
  4055c6:	f2 0f 10 54 24 48    	movsd  0x48(%rsp),%xmm2
  4055cc:	31 c9                	xor    %ecx,%ecx
  4055ce:	be 01 00 00 00       	mov    $0x1,%esi
  4055d3:	f2 0f 59 d2          	mulsd  %xmm2,%xmm2
  4055d7:	f2 0f 59 15 79 48 00 	mulsd  0x4879(%rip),%xmm2        # 409e58 <__dso_handle+0x230>
  4055de:	00 
  4055df:	eb 12                	jmp    4055f3 <pole_dyn+0x563>
  4055e1:	48 8b 15 a0 88 20 00 	mov    0x2088a0(%rip),%rdx        # 60de88 <pole>
  4055e8:	83 c1 01             	add    $0x1,%ecx
  4055eb:	39 0a                	cmp    %ecx,(%rdx)
  4055ed:	0f 8e a4 00 00 00    	jle    405697 <pole_dyn+0x607>
  4055f3:	f2 0f 10 4c 24 48    	movsd  0x48(%rsp),%xmm1
  4055f9:	48 63 c1             	movslq %ecx,%rax
  4055fc:	66 0f 28 c2          	movapd %xmm2,%xmm0
  405600:	83 f9 01             	cmp    $0x1,%ecx
  405603:	f2 0f 59 4c c2 50    	mulsd  0x50(%rdx,%rax,8),%xmm1
  405609:	f2 0f 59 44 c2 68    	mulsd  0x68(%rdx,%rax,8),%xmm0
  40560f:	f2 0f 58 c1          	addsd  %xmm1,%xmm0
  405613:	f2 0f 58 44 c2 38    	addsd  0x38(%rdx,%rax,8),%xmm0
  405619:	f2 0f 11 44 c2 38    	movsd  %xmm0,0x38(%rdx,%rax,8)
  40561f:	48 8b 15 62 88 20 00 	mov    0x208862(%rip),%rdx        # 60de88 <pole>
  405626:	f2 0f 10 44 24 48    	movsd  0x48(%rsp),%xmm0
  40562c:	f2 0f 59 44 c2 68    	mulsd  0x68(%rdx,%rax,8),%xmm0
  405632:	f2 0f 58 44 c2 50    	addsd  0x50(%rdx,%rax,8),%xmm0
  405638:	f2 0f 11 44 c2 50    	movsd  %xmm0,0x50(%rdx,%rax,8)
  40563e:	7f a1                	jg     4055e1 <pole_dyn+0x551>
  405640:	48 8b 15 41 88 20 00 	mov    0x208841(%rip),%rdx        # 60de88 <pole>
  405647:	89 f0                	mov    %esi,%eax
  405649:	f2 0f 10 4c 24 48    	movsd  0x48(%rsp),%xmm1
  40564f:	29 c8                	sub    %ecx,%eax
  405651:	66 0f 28 c2          	movapd %xmm2,%xmm0
  405655:	48 98                	cltq   
  405657:	f2 0f 59 4c c2 18    	mulsd  0x18(%rdx,%rax,8),%xmm1
  40565d:	f2 0f 59 44 c2 28    	mulsd  0x28(%rdx,%rax,8),%xmm0
  405663:	f2 0f 58 c1          	addsd  %xmm1,%xmm0
  405667:	f2 0f 58 44 c2 08    	addsd  0x8(%rdx,%rax,8),%xmm0
  40566d:	f2 0f 11 44 c2 08    	movsd  %xmm0,0x8(%rdx,%rax,8)
  405673:	48 8b 15 0e 88 20 00 	mov    0x20880e(%rip),%rdx        # 60de88 <pole>
  40567a:	f2 0f 10 44 24 48    	movsd  0x48(%rsp),%xmm0
  405680:	f2 0f 59 44 c2 28    	mulsd  0x28(%rdx,%rax,8),%xmm0
  405686:	f2 0f 58 44 c2 18    	addsd  0x18(%rdx,%rax,8),%xmm0
  40568c:	f2 0f 11 44 c2 18    	movsd  %xmm0,0x18(%rdx,%rax,8)
  405692:	e9 4a ff ff ff       	jmpq   4055e1 <pole_dyn+0x551>
  405697:	f2 0f 10 74 24 48    	movsd  0x48(%rsp),%xmm6
  40569d:	f2 0f 58 b2 80 00 00 	addsd  0x80(%rdx),%xmm6
  4056a4:	00 
  4056a5:	f2 0f 11 b2 80 00 00 	movsd  %xmm6,0x80(%rdx)
  4056ac:	00 
  4056ad:	48 83 c4 50          	add    $0x50,%rsp
  4056b1:	5b                   	pop    %rbx
  4056b2:	5d                   	pop    %rbp
  4056b3:	41 5c                	pop    %r12
  4056b5:	c3                   	retq   
  4056b6:	66 0f 57 c0          	xorpd  %xmm0,%xmm0
  4056ba:	66 44 0f 2e f8       	ucomisd %xmm0,%xmm15
  4056bf:	0f 85 df 00 00 00    	jne    4057a4 <pole_dyn+0x714>
  4056c5:	0f 8a d9 00 00 00    	jp     4057a4 <pole_dyn+0x714>
  4056cb:	49 8d 44 24 10       	lea    0x10(%r12),%rax
  4056d0:	66 0f 57 e4          	xorpd  %xmm4,%xmm4
  4056d4:	66 0f 57 d2          	xorpd  %xmm2,%xmm2
  4056d8:	f2 0f 10 0d e0 47 00 	movsd  0x47e0(%rip),%xmm1        # 409ec0 <__dso_handle+0x298>
  4056df:	00 
  4056e0:	f2 0f c2 65 60 05    	cmpnltsd 0x60(%rbp),%xmm4
  4056e6:	f2 44 0f 10 00       	movsd  (%rax),%xmm8
  4056eb:	66 0f 28 da          	movapd %xmm2,%xmm3
  4056ef:	66 0f 28 c4          	movapd %xmm4,%xmm0
  4056f3:	66 0f 55 e2          	andnpd %xmm2,%xmm4
  4056f7:	f2 0f c2 5d 58 05    	cmpnltsd 0x58(%rbp),%xmm3
  4056fd:	f2 0f 10 75 20       	movsd  0x20(%rbp),%xmm6
  405702:	66 0f 54 c1          	andpd  %xmm1,%xmm0
  405706:	f2 0f 59 f6          	mulsd  %xmm6,%xmm6
  40570a:	f2 41 0f 10 6c 24 08 	movsd  0x8(%r12),%xmm5
  405711:	f2 41 0f 10 3c 24    	movsd  (%r12),%xmm7
  405717:	66 0f 56 e0          	orpd   %xmm0,%xmm4
  40571b:	66 0f 28 c3          	movapd %xmm3,%xmm0
  40571f:	66 0f 55 da          	andnpd %xmm2,%xmm3
  405723:	f2 0f c2 55 50 05    	cmpnltsd 0x50(%rbp),%xmm2
  405729:	66 0f 54 c1          	andpd  %xmm1,%xmm0
  40572d:	f2 44 0f 5c c4       	subsd  %xmm4,%xmm8
  405732:	66 0f 56 d8          	orpd   %xmm0,%xmm3
  405736:	66 0f 28 c2          	movapd %xmm2,%xmm0
  40573a:	66 0f 54 c1          	andpd  %xmm1,%xmm0
  40573e:	f2 0f 5c eb          	subsd  %xmm3,%xmm5
  405742:	66 0f 57 c9          	xorpd  %xmm1,%xmm1
  405746:	66 0f 55 d1          	andnpd %xmm1,%xmm2
  40574a:	66 41 0f 28 ce       	movapd %xmm14,%xmm1
  40574f:	f2 41 0f 59 ef       	mulsd  %xmm15,%xmm5
  405754:	66 0f 56 d0          	orpd   %xmm0,%xmm2
  405758:	66 41 0f 28 c7       	movapd %xmm15,%xmm0
  40575d:	f2 41 0f 59 cc       	mulsd  %xmm12,%xmm1
  405762:	f2 0f 59 05 f6 46 00 	mulsd  0x46f6(%rip),%xmm0        # 409e60 <__dso_handle+0x238>
  405769:	00 
  40576a:	f2 0f 5c fa          	subsd  %xmm2,%xmm7
  40576e:	f2 41 0f 59 c8       	mulsd  %xmm8,%xmm1
  405773:	f2 41 0f 59 c6       	mulsd  %xmm14,%xmm0
  405778:	f2 0f 59 c6          	mulsd  %xmm6,%xmm0
  40577c:	f2 0f 5c c1          	subsd  %xmm1,%xmm0
  405780:	66 41 0f 28 ce       	movapd %xmm14,%xmm1
  405785:	f2 41 0f 59 cb       	mulsd  %xmm11,%xmm1
  40578a:	f2 0f 5c c5          	subsd  %xmm5,%xmm0
  40578e:	f2 0f 59 cf          	mulsd  %xmm7,%xmm1
  405792:	f2 0f 58 c1          	addsd  %xmm1,%xmm0
  405796:	f2 0f 58 c0          	addsd  %xmm0,%xmm0
  40579a:	f2 0f 11 45 28       	movsd  %xmm0,0x28(%rbp)
  40579f:	e9 2f fc ff ff       	jmpq   4053d3 <pole_dyn+0x343>
  4057a4:	66 0f 57 d2          	xorpd  %xmm2,%xmm2
  4057a8:	49 8d 44 24 10       	lea    0x10(%r12),%rax
  4057ad:	f2 0f 10 25 0b 47 00 	movsd  0x470b(%rip),%xmm4        # 409ec0 <__dso_handle+0x298>
  4057b4:	00 
  4057b5:	f2 0f c2 55 60 05    	cmpnltsd 0x60(%rbp),%xmm2
  4057bb:	66 0f 57 db          	xorpd  %xmm3,%xmm3
  4057bf:	66 0f 57 f6          	xorpd  %xmm6,%xmm6
  4057c3:	66 0f 28 c2          	movapd %xmm2,%xmm0
  4057c7:	66 0f 55 d3          	andnpd %xmm3,%xmm2
  4057cb:	f2 41 0f 10 1c 24    	movsd  (%r12),%xmm3
  4057d1:	66 0f 54 c4          	andpd  %xmm4,%xmm0
  4057d5:	f2 41 0f 10 4c 24 10 	movsd  0x10(%r12),%xmm1
  4057dc:	66 0f 56 d0          	orpd   %xmm0,%xmm2
  4057e0:	66 0f 57 c0          	xorpd  %xmm0,%xmm0
  4057e4:	f2 0f c2 45 50 05    	cmpnltsd 0x50(%rbp),%xmm0
  4057ea:	f2 0f 5c ca          	subsd  %xmm2,%xmm1
  4057ee:	66 0f 28 e8          	movapd %xmm0,%xmm5
  4057f2:	66 0f 55 c6          	andnpd %xmm6,%xmm0
  4057f6:	66 0f 54 ec          	andpd  %xmm4,%xmm5
  4057fa:	f2 41 0f 59 cb       	mulsd  %xmm11,%xmm1
  4057ff:	66 0f 56 c5          	orpd   %xmm5,%xmm0
  405803:	f2 0f 5c d8          	subsd  %xmm0,%xmm3
  405807:	66 41 0f 28 c6       	movapd %xmm14,%xmm0
  40580c:	f2 0f 59 45 18       	mulsd  0x18(%rbp),%xmm0
  405811:	f2 41 0f 59 dc       	mulsd  %xmm12,%xmm3
  405816:	f2 0f 59 45 20       	mulsd  0x20(%rbp),%xmm0
  40581b:	f2 0f 5c cb          	subsd  %xmm3,%xmm1
  40581f:	f2 0f 5c c8          	subsd  %xmm0,%xmm1
  405823:	66 41 0f 28 c7       	movapd %xmm15,%xmm0
  405828:	f2 0f 59 05 28 46 00 	mulsd  0x4628(%rip),%xmm0        # 409e58 <__dso_handle+0x230>
  40582f:	00 
  405830:	f2 0f 5e c8          	divsd  %xmm0,%xmm1
  405834:	f2 0f 11 4d 30       	movsd  %xmm1,0x30(%rbp)
  405839:	48 8b 2d 48 86 20 00 	mov    0x208648(%rip),%rbp        # 60de88 <pole>
  405840:	e9 8b fe ff ff       	jmpq   4056d0 <pole_dyn+0x640>
  405845:	90                   	nop
  405846:	90                   	nop
  405847:	90                   	nop
  405848:	90                   	nop
  405849:	90                   	nop
  40584a:	90                   	nop
  40584b:	90                   	nop
  40584c:	90                   	nop
  40584d:	90                   	nop
  40584e:	90                   	nop
  40584f:	90                   	nop

0000000000405850 <T_mult>:
  405850:	45 31 db             	xor    %r11d,%r11d
  405853:	45 31 d2             	xor    %r10d,%r10d
  405856:	4e 8d 0c 1f          	lea    (%rdi,%r11,1),%r9
  40585a:	45 31 c0             	xor    %r8d,%r8d
  40585d:	0f 1f 00             	nopl   (%rax)
  405860:	4c 89 54 24 f8       	mov    %r10,-0x8(%rsp)
  405865:	49 63 c0             	movslq %r8d,%rax
  405868:	31 c9                	xor    %ecx,%ecx
  40586a:	f2 0f 10 4c 24 f8    	movsd  -0x8(%rsp),%xmm1
  405870:	48 8d 04 c6          	lea    (%rsi,%rax,8),%rax
  405874:	f2 42 0f 11 0c c2    	movsd  %xmm1,(%rdx,%r8,8)
  40587a:	66 0f 1f 44 00 00    	nopw   0x0(%rax,%rax,1)
  405880:	f2 41 0f 10 04 c9    	movsd  (%r9,%rcx,8),%xmm0
  405886:	48 83 c1 01          	add    $0x1,%rcx
  40588a:	f2 0f 59 00          	mulsd  (%rax),%xmm0
  40588e:	48 83 c0 20          	add    $0x20,%rax
  405892:	48 83 f9 04          	cmp    $0x4,%rcx
  405896:	f2 0f 58 c1          	addsd  %xmm1,%xmm0
  40589a:	66 0f 28 c8          	movapd %xmm0,%xmm1
  40589e:	f2 42 0f 11 04 c2    	movsd  %xmm0,(%rdx,%r8,8)
  4058a4:	75 da                	jne    405880 <T_mult+0x30>
  4058a6:	49 83 c0 01          	add    $0x1,%r8
  4058aa:	49 83 f8 04          	cmp    $0x4,%r8
  4058ae:	75 b0                	jne    405860 <T_mult+0x10>
  4058b0:	49 83 c3 20          	add    $0x20,%r11
  4058b4:	48 83 c2 20          	add    $0x20,%rdx
  4058b8:	49 81 fb 80 00 00 00 	cmp    $0x80,%r11
  4058bf:	75 95                	jne    405856 <T_mult+0x6>
  4058c1:	f3 c3                	repz retq 
  4058c3:	66 0f 1f 44 00 00    	nopw   0x0(%rax,%rax,1)
  4058c9:	0f 1f 80 00 00 00 00 	nopl   0x0(%rax)

00000000004058d0 <P_mult>:
  4058d0:	31 c9                	xor    %ecx,%ecx
  4058d2:	45 31 c0             	xor    %r8d,%r8d
  4058d5:	4c 89 44 24 f8       	mov    %r8,-0x8(%rsp)
  4058da:	31 c0                	xor    %eax,%eax
  4058dc:	f2 0f 10 4c 24 f8    	movsd  -0x8(%rsp),%xmm1
  4058e2:	f2 0f 11 0c ca       	movsd  %xmm1,(%rdx,%rcx,8)
  4058e7:	f2 0f 10 04 c7       	movsd  (%rdi,%rax,8),%xmm0
  4058ec:	f2 0f 59 04 c6       	mulsd  (%rsi,%rax,8),%xmm0
  4058f1:	48 83 c0 01          	add    $0x1,%rax
  4058f5:	48 83 f8 04          	cmp    $0x4,%rax
  4058f9:	f2 0f 58 c1          	addsd  %xmm1,%xmm0
  4058fd:	66 0f 28 c8          	movapd %xmm0,%xmm1
  405901:	f2 0f 11 04 ca       	movsd  %xmm0,(%rdx,%rcx,8)
  405906:	75 df                	jne    4058e7 <P_mult+0x17>
  405908:	48 83 c1 01          	add    $0x1,%rcx
  40590c:	48 83 c7 20          	add    $0x20,%rdi
  405910:	48 83 f9 04          	cmp    $0x4,%rcx
  405914:	75 bf                	jne    4058d5 <P_mult+0x5>
  405916:	f3 c3                	repz retq 
  405918:	0f 1f 84 00 00 00 00 	nopl   0x0(%rax,%rax,1)
  40591f:	00 

0000000000405920 <P_add>:
  405920:	31 c0                	xor    %eax,%eax
  405922:	f2 0f 10 04 c7       	movsd  (%rdi,%rax,8),%xmm0
  405927:	f2 0f 58 04 c6       	addsd  (%rsi,%rax,8),%xmm0
  40592c:	f2 0f 11 04 c2       	movsd  %xmm0,(%rdx,%rax,8)
  405931:	48 83 c0 01          	add    $0x1,%rax
  405935:	48 83 f8 04          	cmp    $0x4,%rax
  405939:	75 e7                	jne    405922 <P_add+0x2>
  40593b:	f3 c3                	repz retq 
  40593d:	0f 1f 00             	nopl   (%rax)

0000000000405940 <P_sub>:
  405940:	31 c0                	xor    %eax,%eax
  405942:	f2 0f 10 04 c7       	movsd  (%rdi,%rax,8),%xmm0
  405947:	f2 0f 5c 04 c6       	subsd  (%rsi,%rax,8),%xmm0
  40594c:	f2 0f 11 04 c2       	movsd  %xmm0,(%rdx,%rax,8)
  405951:	48 83 c0 01          	add    $0x1,%rax
  405955:	48 83 f8 04          	cmp    $0x4,%rax
  405959:	75 e7                	jne    405942 <P_sub+0x2>
  40595b:	f3 c3                	repz retq 
  40595d:	0f 1f 00             	nopl   (%rax)

0000000000405960 <P_copy>:
  405960:	31 d2                	xor    %edx,%edx
  405962:	48 8b 04 d7          	mov    (%rdi,%rdx,8),%rax
  405966:	48 89 04 d6          	mov    %rax,(%rsi,%rdx,8)
  40596a:	48 83 c2 01          	add    $0x1,%rdx
  40596e:	48 83 fa 04          	cmp    $0x4,%rdx
  405972:	75 ee                	jne    405962 <P_copy+0x2>
  405974:	f3 c3                	repz retq 
  405976:	66 2e 0f 1f 84 00 00 	nopw   %cs:0x0(%rax,%rax,1)
  40597d:	00 00 00 

0000000000405980 <T_copy>:
  405980:	31 d2                	xor    %edx,%edx
  405982:	48 8b 04 3a          	mov    (%rdx,%rdi,1),%rax
  405986:	48 89 04 32          	mov    %rax,(%rdx,%rsi,1)
  40598a:	48 8b 44 3a 08       	mov    0x8(%rdx,%rdi,1),%rax
  40598f:	48 89 44 32 08       	mov    %rax,0x8(%rdx,%rsi,1)
  405994:	48 8b 44 3a 10       	mov    0x10(%rdx,%rdi,1),%rax
  405999:	48 89 44 32 10       	mov    %rax,0x10(%rdx,%rsi,1)
  40599e:	48 8b 44 3a 18       	mov    0x18(%rdx,%rdi,1),%rax
  4059a3:	48 89 44 32 18       	mov    %rax,0x18(%rdx,%rsi,1)
  4059a8:	48 83 c2 20          	add    $0x20,%rdx
  4059ac:	48 81 fa 80 00 00 00 	cmp    $0x80,%rdx
  4059b3:	75 cd                	jne    405982 <T_copy+0x2>
  4059b5:	f3 c3                	repz retq 
  4059b7:	66 0f 1f 84 00 00 00 	nopw   0x0(%rax,%rax,1)
  4059be:	00 00 

00000000004059c0 <Identity>:
  4059c0:	48 89 fe             	mov    %rdi,%rsi
  4059c3:	31 c9                	xor    %ecx,%ecx
  4059c5:	48 89 fa             	mov    %rdi,%rdx
  4059c8:	31 c0                	xor    %eax,%eax
  4059ca:	eb 17                	jmp    4059e3 <Identity+0x23>
  4059cc:	0f 1f 40 00          	nopl   0x0(%rax)
  4059d0:	83 c0 01             	add    $0x1,%eax
  4059d3:	48 c7 02 00 00 00 00 	movq   $0x0,(%rdx)
  4059da:	48 83 c2 08          	add    $0x8,%rdx
  4059de:	83 f8 04             	cmp    $0x4,%eax
  4059e1:	74 1d                	je     405a00 <Identity+0x40>
  4059e3:	39 c1                	cmp    %eax,%ecx
  4059e5:	75 e9                	jne    4059d0 <Identity+0x10>
  4059e7:	83 c0 01             	add    $0x1,%eax
  4059ea:	49 b8 00 00 00 00 00 	movabs $0x3ff0000000000000,%r8
  4059f1:	00 f0 3f 
  4059f4:	48 83 c2 08          	add    $0x8,%rdx
  4059f8:	83 f8 04             	cmp    $0x4,%eax
  4059fb:	4c 89 06             	mov    %r8,(%rsi)
  4059fe:	75 e3                	jne    4059e3 <Identity+0x23>
  405a00:	83 c1 01             	add    $0x1,%ecx
  405a03:	48 83 c7 20          	add    $0x20,%rdi
  405a07:	48 83 c6 28          	add    $0x28,%rsi
  405a0b:	83 f9 04             	cmp    $0x4,%ecx
  405a0e:	75 b5                	jne    4059c5 <Identity+0x5>
  405a10:	f3 c3                	repz retq 
  405a12:	0f 1f 80 00 00 00 00 	nopl   0x0(%rax)
  405a19:	0f 1f 80 00 00 00 00 	nopl   0x0(%rax)

0000000000405a20 <Bas_vect>:
  405a20:	f2 0f 11 44 24 f8    	movsd  %xmm0,-0x8(%rsp)
  405a26:	48 8b 4c 24 f8       	mov    -0x8(%rsp),%rcx
  405a2b:	48 63 c7             	movslq %edi,%rax
  405a2e:	48 8d 14 c6          	lea    (%rsi,%rax,8),%rdx
  405a32:	31 c0                	xor    %eax,%eax
  405a34:	39 f8                	cmp    %edi,%eax
  405a36:	74 18                	je     405a50 <Bas_vect+0x30>
  405a38:	48 c7 06 00 00 00 00 	movq   $0x0,(%rsi)
  405a3f:	83 c0 01             	add    $0x1,%eax
  405a42:	48 83 c6 08          	add    $0x8,%rsi
  405a46:	83 f8 04             	cmp    $0x4,%eax
  405a49:	75 e9                	jne    405a34 <Bas_vect+0x14>
  405a4b:	f3 c3                	repz retq 
  405a4d:	0f 1f 00             	nopl   (%rax)
  405a50:	48 89 0a             	mov    %rcx,(%rdx)
  405a53:	eb ea                	jmp    405a3f <Bas_vect+0x1f>
  405a55:	0f 1f 44 00 00       	nopl   0x0(%rax,%rax,1)
  405a5a:	66 0f 1f 44 00 00    	nopw   0x0(%rax,%rax,1)

0000000000405a60 <RotZ>:
  405a60:	48 89 5c 24 e8       	mov    %rbx,-0x18(%rsp)
  405a65:	4c 89 64 24 f0       	mov    %r12,-0x10(%rsp)
  405a6a:	48 89 fb             	mov    %rdi,%rbx
  405a6d:	4c 89 6c 24 f8       	mov    %r13,-0x8(%rsp)
  405a72:	48 83 ec 28          	sub    $0x28,%rsp
  405a76:	f2 0f 11 44 24 08    	movsd  %xmm0,0x8(%rsp)
  405a7c:	4c 8b 64 24 08       	mov    0x8(%rsp),%r12
  405a81:	e8 3a ff ff ff       	callq  4059c0 <Identity>
  405a86:	4c 89 64 24 08       	mov    %r12,0x8(%rsp)
  405a8b:	f2 0f 10 44 24 08    	movsd  0x8(%rsp),%xmm0
  405a91:	e8 d2 c3 ff ff       	callq  401e68 <cos@plt>
  405a96:	f2 0f 11 44 24 08    	movsd  %xmm0,0x8(%rsp)
  405a9c:	4c 8b 6c 24 08       	mov    0x8(%rsp),%r13
  405aa1:	4c 89 64 24 08       	mov    %r12,0x8(%rsp)
  405aa6:	f2 0f 10 44 24 08    	movsd  0x8(%rsp),%xmm0
  405aac:	4c 89 2b             	mov    %r13,(%rbx)
  405aaf:	e8 74 c7 ff ff       	callq  402228 <sin@plt>
  405ab4:	66 0f 28 c8          	movapd %xmm0,%xmm1
  405ab8:	4c 89 6b 28          	mov    %r13,0x28(%rbx)
  405abc:	f2 0f 11 43 20       	movsd  %xmm0,0x20(%rbx)
  405ac1:	4c 8b 64 24 18       	mov    0x18(%rsp),%r12
  405ac6:	4c 8b 6c 24 20       	mov    0x20(%rsp),%r13
  405acb:	66 0f 57 0d 2d 44 00 	xorpd  0x442d(%rip),%xmm1        # 409f00 <__dso_handle+0x2d8>
  405ad2:	00 
  405ad3:	f2 0f 11 4b 08       	movsd  %xmm1,0x8(%rbx)
  405ad8:	48 8b 5c 24 10       	mov    0x10(%rsp),%rbx
  405add:	48 83 c4 28          	add    $0x28,%rsp
  405ae1:	c3                   	retq   
  405ae2:	0f 1f 80 00 00 00 00 	nopl   0x0(%rax)
  405ae9:	0f 1f 80 00 00 00 00 	nopl   0x0(%rax)

0000000000405af0 <RotY>:
  405af0:	48 89 5c 24 e8       	mov    %rbx,-0x18(%rsp)
  405af5:	4c 89 64 24 f0       	mov    %r12,-0x10(%rsp)
  405afa:	48 89 fb             	mov    %rdi,%rbx
  405afd:	4c 89 6c 24 f8       	mov    %r13,-0x8(%rsp)
  405b02:	48 83 ec 28          	sub    $0x28,%rsp
  405b06:	f2 0f 11 44 24 08    	movsd  %xmm0,0x8(%rsp)
  405b0c:	4c 8b 64 24 08       	mov    0x8(%rsp),%r12
  405b11:	e8 aa fe ff ff       	callq  4059c0 <Identity>
  405b16:	4c 89 64 24 08       	mov    %r12,0x8(%rsp)
  405b1b:	f2 0f 10 44 24 08    	movsd  0x8(%rsp),%xmm0
  405b21:	e8 42 c3 ff ff       	callq  401e68 <cos@plt>
  405b26:	f2 0f 11 44 24 08    	movsd  %xmm0,0x8(%rsp)
  405b2c:	4c 8b 6c 24 08       	mov    0x8(%rsp),%r13
  405b31:	4c 89 64 24 08       	mov    %r12,0x8(%rsp)
  405b36:	f2 0f 10 44 24 08    	movsd  0x8(%rsp),%xmm0
  405b3c:	4c 89 2b             	mov    %r13,(%rbx)
  405b3f:	e8 e4 c6 ff ff       	callq  402228 <sin@plt>
  405b44:	66 0f 28 c8          	movapd %xmm0,%xmm1
  405b48:	4c 89 6b 50          	mov    %r13,0x50(%rbx)
  405b4c:	f2 0f 11 43 40       	movsd  %xmm0,0x40(%rbx)
  405b51:	4c 8b 64 24 18       	mov    0x18(%rsp),%r12
  405b56:	4c 8b 6c 24 20       	mov    0x20(%rsp),%r13
  405b5b:	66 0f 57 0d 9d 43 00 	xorpd  0x439d(%rip),%xmm1        # 409f00 <__dso_handle+0x2d8>
  405b62:	00 
  405b63:	f2 0f 11 4b 10       	movsd  %xmm1,0x10(%rbx)
  405b68:	48 8b 5c 24 10       	mov    0x10(%rsp),%rbx
  405b6d:	48 83 c4 28          	add    $0x28,%rsp
  405b71:	c3                   	retq   
  405b72:	0f 1f 80 00 00 00 00 	nopl   0x0(%rax)
  405b79:	0f 1f 80 00 00 00 00 	nopl   0x0(%rax)

0000000000405b80 <RotX>:
  405b80:	48 89 5c 24 e0       	mov    %rbx,-0x20(%rsp)
  405b85:	48 89 6c 24 e8       	mov    %rbp,-0x18(%rsp)
  405b8a:	48 89 fd             	mov    %rdi,%rbp
  405b8d:	4c 89 64 24 f0       	mov    %r12,-0x10(%rsp)
  405b92:	4c 89 6c 24 f8       	mov    %r13,-0x8(%rsp)
  405b97:	48 83 ec 28          	sub    $0x28,%rsp
  405b9b:	f2 0f 11 04 24       	movsd  %xmm0,(%rsp)
  405ba0:	48 8b 1c 24          	mov    (%rsp),%rbx
  405ba4:	4c 8d 65 20          	lea    0x20(%rbp),%r12
  405ba8:	e8 13 fe ff ff       	callq  4059c0 <Identity>
  405bad:	48 89 1c 24          	mov    %rbx,(%rsp)
  405bb1:	f2 0f 10 04 24       	movsd  (%rsp),%xmm0
  405bb6:	e8 ad c2 ff ff       	callq  401e68 <cos@plt>
  405bbb:	f2 0f 11 04 24       	movsd  %xmm0,(%rsp)
  405bc0:	4c 8b 2c 24          	mov    (%rsp),%r13
  405bc4:	4d 89 6c 24 08       	mov    %r13,0x8(%r12)
  405bc9:	48 89 1c 24          	mov    %rbx,(%rsp)
  405bcd:	f2 0f 10 04 24       	movsd  (%rsp),%xmm0
  405bd2:	e8 51 c6 ff ff       	callq  402228 <sin@plt>
  405bd7:	66 0f 28 c8          	movapd %xmm0,%xmm1
  405bdb:	48 8d 45 40          	lea    0x40(%rbp),%rax
  405bdf:	66 0f 57 0d 19 43 00 	xorpd  0x4319(%rip),%xmm1        # 409f00 <__dso_handle+0x2d8>
  405be6:	00 
  405be7:	f2 41 0f 11 4c 24 10 	movsd  %xmm1,0x10(%r12)
  405bee:	4c 89 68 10          	mov    %r13,0x10(%rax)
  405bf2:	f2 0f 11 40 08       	movsd  %xmm0,0x8(%rax)
  405bf7:	48 8b 5c 24 08       	mov    0x8(%rsp),%rbx
  405bfc:	48 8b 6c 24 10       	mov    0x10(%rsp),%rbp
  405c01:	4c 8b 64 24 18       	mov    0x18(%rsp),%r12
  405c06:	4c 8b 6c 24 20       	mov    0x20(%rsp),%r13
  405c0b:	48 83 c4 28          	add    $0x28,%rsp
  405c0f:	c3                   	retq   

0000000000405c10 <Decoder3Dn>:
  405c10:	4c 63 cf             	movslq %edi,%r9
  405c13:	31 c0                	xor    %eax,%eax
  405c15:	f2 42 0f 10 44 ce 38 	movsd  0x38(%rsi,%r9,8),%xmm0
  405c1c:	0f 1f 40 00          	nopl   0x0(%rax)
  405c20:	66 0f 2e 04 c5 00 a0 	ucomisd 0x40a000(,%rax,8),%xmm0
  405c27:	40 00 
  405c29:	41 89 c0             	mov    %eax,%r8d
  405c2c:	45 8d 58 ff          	lea    -0x1(%r8),%r11d
  405c30:	76 0d                	jbe    405c3f <Decoder3Dn+0x2f>
  405c32:	48 83 c0 01          	add    $0x1,%rax
  405c36:	48 83 f8 04          	cmp    $0x4,%rax
  405c3a:	75 e4                	jne    405c20 <Decoder3Dn+0x10>
  405c3c:	45 89 c3             	mov    %r8d,%r11d
  405c3f:	f2 42 0f 10 44 ce 50 	movsd  0x50(%rsi,%r9,8),%xmm0
  405c46:	31 c0                	xor    %eax,%eax
  405c48:	66 0f 2e 04 c5 e0 9f 	ucomisd 0x409fe0(,%rax,8),%xmm0
  405c4f:	40 00 
  405c51:	41 89 c0             	mov    %eax,%r8d
  405c54:	45 8d 50 ff          	lea    -0x1(%r8),%r10d
  405c58:	76 0d                	jbe    405c67 <Decoder3Dn+0x57>
  405c5a:	48 83 c0 01          	add    $0x1,%rax
  405c5e:	48 83 f8 04          	cmp    $0x4,%rax
  405c62:	75 e4                	jne    405c48 <Decoder3Dn+0x38>
  405c64:	45 89 c2             	mov    %r8d,%r10d
  405c67:	83 ff 01             	cmp    $0x1,%edi
  405c6a:	0f 8e 7c 01 00 00    	jle    405dec <Decoder3Dn+0x1dc>
  405c70:	f2 44 0f 10 46 08    	movsd  0x8(%rsi),%xmm8
  405c76:	31 c0                	xor    %eax,%eax
  405c78:	f2 44 0f 10 4e 10    	movsd  0x10(%rsi),%xmm9
  405c7e:	66 41 0f 28 c8       	movapd %xmm8,%xmm1
  405c83:	f2 0f 10 05 85 42 00 	movsd  0x4285(%rip),%xmm0        # 409f10 <__dso_handle+0x2e8>
  405c8a:	00 
  405c8b:	66 41 0f 28 d1       	movapd %xmm9,%xmm2
  405c90:	f2 0f 5c 0d f8 41 00 	subsd  0x41f8(%rip),%xmm1        # 409e90 <__dso_handle+0x268>
  405c97:	00 
  405c98:	66 0f 54 d0          	andpd  %xmm0,%xmm2
  405c9c:	66 0f 54 c8          	andpd  %xmm0,%xmm1
  405ca0:	66 0f 28 c2          	movapd %xmm2,%xmm0
  405ca4:	8d 78 ff             	lea    -0x1(%rax),%edi
  405ca7:	41 89 c1             	mov    %eax,%r9d
  405caa:	f2 0f 5f c1          	maxsd  %xmm1,%xmm0
  405cae:	66 0f 2e 04 c5 a0 9f 	ucomisd 0x409fa0(,%rax,8),%xmm0
  405cb5:	40 00 
  405cb7:	0f 86 a0 01 00 00    	jbe    405e5d <Decoder3Dn+0x24d>
  405cbd:	48 83 c0 01          	add    $0x1,%rax
  405cc1:	48 83 f8 07          	cmp    $0x7,%rax
  405cc5:	75 d9                	jne    405ca0 <Decoder3Dn+0x90>
  405cc7:	f2 0f 10 7e 20       	movsd  0x20(%rsi),%xmm7
  405ccc:	31 c0                	xor    %eax,%eax
  405cce:	f2 0f 10 6e 18       	movsd  0x18(%rsi),%xmm5
  405cd3:	66 0f 57 f6          	xorpd  %xmm6,%xmm6
  405cd7:	66 0f 28 ce          	movapd %xmm6,%xmm1
  405cdb:	8d 78 ff             	lea    -0x1(%rax),%edi
  405cde:	f2 0f 10 15 42 42 00 	movsd  0x4242(%rip),%xmm2        # 409f28 <__dso_handle+0x300>
  405ce5:	00 
  405ce6:	89 c6                	mov    %eax,%esi
  405ce8:	f2 41 0f c2 c9 05    	cmpnltsd %xmm9,%xmm1
  405cee:	f2 0f 10 1d 2a 42 00 	movsd  0x422a(%rip),%xmm3        # 409f20 <__dso_handle+0x2f8>
  405cf5:	00 
  405cf6:	f2 0f 10 24 c5 80 9f 	movsd  0x409f80(,%rax,8),%xmm4
  405cfd:	40 00 
  405cff:	66 0f 28 c1          	movapd %xmm1,%xmm0
  405d03:	66 0f 55 cb          	andnpd %xmm3,%xmm1
  405d07:	66 0f 54 c2          	andpd  %xmm2,%xmm0
  405d0b:	66 0f 56 c8          	orpd   %xmm0,%xmm1
  405d0f:	66 0f 28 c6          	movapd %xmm6,%xmm0
  405d13:	f2 41 0f c2 c0 05    	cmpnltsd %xmm8,%xmm0
  405d19:	f2 0f 59 cf          	mulsd  %xmm7,%xmm1
  405d1d:	66 44 0f 28 d0       	movapd %xmm0,%xmm10
  405d22:	66 0f 55 c3          	andnpd %xmm3,%xmm0
  405d26:	66 44 0f 54 d2       	andpd  %xmm2,%xmm10
  405d2b:	66 41 0f 56 c2       	orpd   %xmm10,%xmm0
  405d30:	f2 0f 59 c5          	mulsd  %xmm5,%xmm0
  405d34:	f2 0f 5f c8          	maxsd  %xmm0,%xmm1
  405d38:	66 0f 2e cc          	ucomisd %xmm4,%xmm1
  405d3c:	0f 86 14 01 00 00    	jbe    405e56 <Decoder3Dn+0x246>
  405d42:	48 83 c0 01          	add    $0x1,%rax
  405d46:	48 83 f8 04          	cmp    $0x4,%rax
  405d4a:	75 8b                	jne    405cd7 <Decoder3Dn+0xc7>
  405d4c:	41 83 fb ff          	cmp    $0xffffffff,%r11d
  405d50:	0f 84 8a 00 00 00    	je     405de0 <Decoder3Dn+0x1d0>
  405d56:	41 83 fb 03          	cmp    $0x3,%r11d
  405d5a:	0f 84 80 00 00 00    	je     405de0 <Decoder3Dn+0x1d0>
  405d60:	41 83 fa ff          	cmp    $0xffffffff,%r10d
  405d64:	74 7a                	je     405de0 <Decoder3Dn+0x1d0>
  405d66:	41 83 fa 03          	cmp    $0x3,%r10d
  405d6a:	74 74                	je     405de0 <Decoder3Dn+0x1d0>
  405d6c:	41 83 f9 ff          	cmp    $0xffffffff,%r9d
  405d70:	74 6e                	je     405de0 <Decoder3Dn+0x1d0>
  405d72:	41 83 f9 06          	cmp    $0x6,%r9d
  405d76:	74 68                	je     405de0 <Decoder3Dn+0x1d0>
  405d78:	83 fe ff             	cmp    $0xffffffff,%esi
  405d7b:	0f 1f 44 00 00       	nopl   0x0(%rax,%rax,1)
  405d80:	74 5e                	je     405de0 <Decoder3Dn+0x1d0>
  405d82:	83 fe 03             	cmp    $0x3,%esi
  405d85:	74 59                	je     405de0 <Decoder3Dn+0x1d0>
  405d87:	41 83 f9 02          	cmp    $0x2,%r9d
  405d8b:	c7 01 00 00 00 00    	movl   $0x0,(%rcx)
  405d91:	c7 02 00 00 00 00    	movl   $0x0,(%rdx)
  405d97:	7e 2a                	jle    405dc3 <Decoder3Dn+0x1b3>
  405d99:	b8 05 00 00 00       	mov    $0x5,%eax
  405d9e:	c7 02 01 00 00 00    	movl   $0x1,(%rdx)
  405da4:	44 29 c8             	sub    %r9d,%eax
  405da7:	41 89 c1             	mov    %eax,%r9d
  405daa:	b8 02 00 00 00       	mov    $0x2,%eax
  405daf:	89 c2                	mov    %eax,%edx
  405db1:	44 29 da             	sub    %r11d,%edx
  405db4:	41 89 d3             	mov    %edx,%r11d
  405db7:	89 c2                	mov    %eax,%edx
  405db9:	29 f0                	sub    %esi,%eax
  405dbb:	44 29 d2             	sub    %r10d,%edx
  405dbe:	89 c6                	mov    %eax,%esi
  405dc0:	41 89 d2             	mov    %edx,%r10d
  405dc3:	43 8d 14 c9          	lea    (%r9,%r9,8),%edx
  405dc7:	43 8d 04 52          	lea    (%r10,%r10,2),%eax
  405dcb:	01 d0                	add    %edx,%eax
  405dcd:	8d 14 76             	lea    (%rsi,%rsi,2),%edx
  405dd0:	44 01 d8             	add    %r11d,%eax
  405dd3:	8d 14 d2             	lea    (%rdx,%rdx,8),%edx
  405dd6:	01 d0                	add    %edx,%eax
  405dd8:	c3                   	retq   
  405dd9:	0f 1f 80 00 00 00 00 	nopl   0x0(%rax)
  405de0:	b8 ff ff ff ff       	mov    $0xffffffff,%eax
  405de5:	c7 01 01 00 00 00    	movl   $0x1,(%rcx)
  405deb:	c3                   	retq   
  405dec:	f2 0f 2a c7          	cvtsi2sd %edi,%xmm0
  405df0:	b8 01 00 00 00       	mov    $0x1,%eax
  405df5:	29 f8                	sub    %edi,%eax
  405df7:	31 ff                	xor    %edi,%edi
  405df9:	48 98                	cltq   
  405dfb:	f2 0f 59 05 55 40 00 	mulsd  0x4055(%rip),%xmm0        # 409e58 <__dso_handle+0x230>
  405e02:	00 
  405e03:	f2 0f 59 05 9d 40 00 	mulsd  0x409d(%rip),%xmm0        # 409ea8 <__dso_handle+0x280>
  405e0a:	00 
  405e0b:	f2 0f 58 44 c6 08    	addsd  0x8(%rsi,%rax,8),%xmm0
  405e11:	66 0f 2e 04 fd a0 9f 	ucomisd 0x409fa0(,%rdi,8),%xmm0
  405e18:	40 00 
  405e1a:	41 89 f8             	mov    %edi,%r8d
  405e1d:	45 8d 48 ff          	lea    -0x1(%r8),%r9d
  405e21:	76 0d                	jbe    405e30 <Decoder3Dn+0x220>
  405e23:	48 83 c7 01          	add    $0x1,%rdi
  405e27:	48 83 ff 07          	cmp    $0x7,%rdi
  405e2b:	75 e4                	jne    405e11 <Decoder3Dn+0x201>
  405e2d:	45 89 c1             	mov    %r8d,%r9d
  405e30:	f2 0f 10 44 c6 18    	movsd  0x18(%rsi,%rax,8),%xmm0
  405e36:	31 c0                	xor    %eax,%eax
  405e38:	66 0f 2e 04 c5 80 9f 	ucomisd 0x409f80(,%rax,8),%xmm0
  405e3f:	40 00 
  405e41:	89 c7                	mov    %eax,%edi
  405e43:	8d 77 ff             	lea    -0x1(%rdi),%esi
  405e46:	0f 86 00 ff ff ff    	jbe    405d4c <Decoder3Dn+0x13c>
  405e4c:	48 83 c0 01          	add    $0x1,%rax
  405e50:	48 83 f8 04          	cmp    $0x4,%rax
  405e54:	75 e2                	jne    405e38 <Decoder3Dn+0x228>
  405e56:	89 fe                	mov    %edi,%esi
  405e58:	e9 ef fe ff ff       	jmpq   405d4c <Decoder3Dn+0x13c>
  405e5d:	41 89 f9             	mov    %edi,%r9d
  405e60:	e9 62 fe ff ff       	jmpq   405cc7 <Decoder3Dn+0xb7>
  405e65:	0f 1f 44 00 00       	nopl   0x0(%rax,%rax,1)
  405e6a:	66 0f 1f 44 00 00    	nopw   0x0(%rax,%rax,1)

0000000000405e70 <ACE>:
  405e70:	85 f6                	test   %esi,%esi
  405e72:	74 40                	je     405eb4 <ACE+0x44>
  405e74:	48 63 ff             	movslq %edi,%rdi
  405e77:	31 d2                	xor    %edx,%edx
  405e79:	48 8d 04 ff          	lea    (%rdi,%rdi,8),%rax
  405e7d:	48 8d 04 c0          	lea    (%rax,%rax,8),%rax
  405e81:	48 8d 04 c5 20 d6 60 	lea    0x60d620(,%rax,8),%rax
  405e88:	00 
  405e89:	0f 1f 80 00 00 00 00 	nopl   0x0(%rax)
  405e90:	83 c2 01             	add    $0x1,%edx
  405e93:	48 c7 00 00 00 00 00 	movq   $0x0,(%rax)
  405e9a:	48 83 c0 08          	add    $0x8,%rax
  405e9e:	83 fa 51             	cmp    $0x51,%edx
  405ea1:	75 ed                	jne    405e90 <ACE+0x20>
  405ea3:	66 0f 28 c5          	movapd %xmm5,%xmm0
  405ea7:	48 c7 04 fd a8 d8 60 	movq   $0x0,0x60d8a8(,%rdi,8)
  405eae:	00 00 00 00 00 
  405eb3:	c3                   	retq   
  405eb4:	48 63 ff             	movslq %edi,%rdi
  405eb7:	f2 0f 10 1d 79 40 00 	movsd  0x4079(%rip),%xmm3        # 409f38 <__dso_handle+0x310>
  405ebe:	00 
  405ebf:	44 8b 0c bd b4 d8 60 	mov    0x60d8b4(,%rdi,4),%r9d
  405ec6:	00 
  405ec7:	48 8d 14 ff          	lea    (%rdi,%rdi,8),%rdx
  405ecb:	45 31 c0             	xor    %r8d,%r8d
  405ece:	f2 0f 10 25 6a 40 00 	movsd  0x406a(%rip),%xmm4        # 409f40 <__dso_handle+0x318>
  405ed5:	00 
  405ed6:	48 8d 14 d2          	lea    (%rdx,%rdx,8),%rdx
  405eda:	49 63 c1             	movslq %r9d,%rax
  405edd:	48 8d 04 02          	lea    (%rdx,%rax,1),%rax
  405ee1:	f2 0f 10 34 c5 c0 d8 	movsd  0x60d8c0(,%rax,8),%xmm6
  405ee8:	60 00 
  405eea:	48 8d 04 d5 00 00 00 	lea    0x0(,%rdx,8),%rax
  405ef1:	00 
  405ef2:	66 0f 28 ee          	movapd %xmm6,%xmm5
  405ef6:	48 8d 88 c0 d8 60 00 	lea    0x60d8c0(%rax),%rcx
  405efd:	48 8d b0 20 d6 60 00 	lea    0x60d620(%rax),%rsi
  405f04:	f2 0f 59 2d 24 40 00 	mulsd  0x4024(%rip),%xmm5        # 409f30 <__dso_handle+0x308>
  405f0b:	00 
  405f0c:	f2 0f 58 e8          	addsd  %xmm0,%xmm5
  405f10:	f2 0f 5c 2c fd a8 d8 	subsd  0x60d8a8(,%rdi,8),%xmm5
  405f17:	60 00 
  405f19:	66 0f 28 d5          	movapd %xmm5,%xmm2
  405f1d:	f2 0f 59 15 33 3f 00 	mulsd  0x3f33(%rip),%xmm2        # 409e58 <__dso_handle+0x230>
  405f24:	00 
  405f25:	eb 1a                	jmp    405f41 <ACE+0xd1>
  405f27:	f2 0f 59 cb          	mulsd  %xmm3,%xmm1
  405f2b:	f2 0f 11 0e          	movsd  %xmm1,(%rsi)
  405f2f:	41 83 c0 01          	add    $0x1,%r8d
  405f33:	48 83 c1 08          	add    $0x8,%rcx
  405f37:	48 83 c6 08          	add    $0x8,%rsi
  405f3b:	41 83 f8 51          	cmp    $0x51,%r8d
  405f3f:	74 33                	je     405f74 <ACE+0x104>
  405f41:	f2 0f 10 0e          	movsd  (%rsi),%xmm1
  405f45:	45 39 c8             	cmp    %r9d,%r8d
  405f48:	66 0f 28 c2          	movapd %xmm2,%xmm0
  405f4c:	f2 0f 59 c1          	mulsd  %xmm1,%xmm0
  405f50:	f2 0f 58 01          	addsd  (%rcx),%xmm0
  405f54:	f2 0f 11 01          	movsd  %xmm0,(%rcx)
  405f58:	75 cd                	jne    405f27 <ACE+0xb7>
  405f5a:	f2 0f 59 cb          	mulsd  %xmm3,%xmm1
  405f5e:	49 63 c0             	movslq %r8d,%rax
  405f61:	48 8d 04 02          	lea    (%rdx,%rax,1),%rax
  405f65:	f2 0f 58 cc          	addsd  %xmm4,%xmm1
  405f69:	f2 0f 11 0c c5 20 d6 	movsd  %xmm1,0x60d620(,%rax,8)
  405f70:	60 00 
  405f72:	eb bb                	jmp    405f2f <ACE+0xbf>
  405f74:	66 0f 28 c5          	movapd %xmm5,%xmm0
  405f78:	f2 0f 11 34 fd a8 d8 	movsd  %xmm6,0x60d8a8(,%rdi,8)
  405f7f:	60 00 
  405f81:	c3                   	retq   
  405f82:	0f 1f 80 00 00 00 00 	nopl   0x0(%rax)
  405f89:	0f 1f 80 00 00 00 00 	nopl   0x0(%rax)

0000000000405f90 <noise>:
  405f90:	53                   	push   %rbx
  405f91:	66 0f 57 c0          	xorpd  %xmm0,%xmm0
  405f95:	48 83 ec 10          	sub    $0x10,%rsp
  405f99:	8b 05 51 59 20 00    	mov    0x205951(%rip),%eax        # 60b8f0 <train>
  405f9f:	85 c0                	test   %eax,%eax
  405fa1:	75 0d                	jne    405fb0 <noise+0x20>
  405fa3:	48 83 c4 10          	add    $0x10,%rsp
  405fa7:	5b                   	pop    %rbx
  405fa8:	c3                   	retq   
  405fa9:	0f 1f 80 00 00 00 00 	nopl   0x0(%rax)
  405fb0:	31 c0                	xor    %eax,%eax
  405fb2:	e8 d1 c1 ff ff       	callq  402188 <random@plt>
  405fb7:	89 c3                	mov    %eax,%ebx
  405fb9:	31 c0                	xor    %eax,%eax
  405fbb:	e8 c8 c1 ff ff       	callq  402188 <random@plt>
  405fc0:	f2 0f 2a c0          	cvtsi2sd %eax,%xmm0
  405fc4:	f2 0f 10 1d 7c 3f 00 	movsd  0x3f7c(%rip),%xmm3        # 409f48 <__dso_handle+0x320>
  405fcb:	00 
  405fcc:	66 0f 57 c9          	xorpd  %xmm1,%xmm1
  405fd0:	f2 0f 10 15 48 3f 00 	movsd  0x3f48(%rip),%xmm2        # 409f20 <__dso_handle+0x2f8>
  405fd7:	00 
  405fd8:	f2 0f 5e c3          	divsd  %xmm3,%xmm0
  405fdc:	f2 0f 58 c0          	addsd  %xmm0,%xmm0
  405fe0:	f2 0f 5c c2          	subsd  %xmm2,%xmm0
  405fe4:	f2 0f c2 c8 05       	cmpnltsd %xmm0,%xmm1
  405fe9:	f2 0f 10 05 37 3f 00 	movsd  0x3f37(%rip),%xmm0        # 409f28 <__dso_handle+0x300>
  405ff0:	00 
  405ff1:	66 0f 28 e1          	movapd %xmm1,%xmm4
  405ff5:	66 0f 55 ca          	andnpd %xmm2,%xmm1
  405ff9:	66 0f 54 e0          	andpd  %xmm0,%xmm4
  405ffd:	f2 0f 2a c3          	cvtsi2sd %ebx,%xmm0
  406001:	66 0f 56 cc          	orpd   %xmm4,%xmm1
  406005:	f2 0f 11 4c 24 08    	movsd  %xmm1,0x8(%rsp)
  40600b:	f2 0f 5e c3          	divsd  %xmm3,%xmm0
  40600f:	f2 0f 59 05 39 3f 00 	mulsd  0x3f39(%rip),%xmm0        # 409f50 <__dso_handle+0x328>
  406016:	00 
  406017:	f2 0f 59 05 39 3f 00 	mulsd  0x3f39(%rip),%xmm0        # 409f58 <__dso_handle+0x330>
  40601e:	00 
  40601f:	e8 14 c2 ff ff       	callq  402238 <log@plt>
  406024:	66 0f 28 c8          	movapd %xmm0,%xmm1
  406028:	f2 0f 59 0d 30 3f 00 	mulsd  0x3f30(%rip),%xmm1        # 409f60 <__dso_handle+0x338>
  40602f:	00 
  406030:	f2 0f 51 c1          	sqrtsd %xmm1,%xmm0
  406034:	66 0f 2e c0          	ucomisd %xmm0,%xmm0
  406038:	7a 02                	jp     40603c <noise+0xac>
  40603a:	74 09                	je     406045 <noise+0xb5>
  40603c:	66 0f 28 c1          	movapd %xmm1,%xmm0
  406040:	e8 d3 c1 ff ff       	callq  402218 <sqrt@plt>
  406045:	f2 0f 59 44 24 08    	mulsd  0x8(%rsp),%xmm0
  40604b:	48 83 c4 10          	add    $0x10,%rsp
  40604f:	5b                   	pop    %rbx
  406050:	c3                   	retq   
  406051:	0f 1f 80 00 00 00 00 	nopl   0x0(%rax)
  406058:	0f 1f 84 00 00 00 00 	nopl   0x0(%rax,%rax,1)
  40605f:	00 

0000000000406060 <ASE>:
  406060:	41 54                	push   %r12
  406062:	49 89 d4             	mov    %rdx,%r12
  406065:	55                   	push   %rbp
  406066:	53                   	push   %rbx
  406067:	48 83 ec 10          	sub    $0x10,%rsp
  40606b:	85 f6                	test   %esi,%esi
  40606d:	74 47                	je     4060b6 <ASE+0x56>
  40606f:	48 63 ef             	movslq %edi,%rbp
  406072:	31 d2                	xor    %edx,%edx
  406074:	48 8d 44 ed 00       	lea    0x0(%rbp,%rbp,8),%rax
  406079:	48 8d 04 c0          	lea    (%rax,%rax,8),%rax
  40607d:	48 8d 04 c5 80 d3 60 	lea    0x60d380(,%rax,8),%rax
  406084:	00 
  406085:	83 c2 01             	add    $0x1,%edx
  406088:	48 c7 00 00 00 00 00 	movq   $0x0,(%rax)
  40608f:	48 83 c0 08          	add    $0x8,%rax
  406093:	83 fa 51             	cmp    $0x51,%edx
  406096:	75 ed                	jne    406085 <ASE+0x25>
  406098:	48 c7 04 ed 08 d6 60 	movq   $0x0,0x60d608(,%rbp,8)
  40609f:	00 00 00 00 00 
  4060a4:	f2 0f 10 04 ed 08 d6 	movsd  0x60d608(,%rbp,8),%xmm0
  4060ab:	60 00 
  4060ad:	48 83 c4 10          	add    $0x10,%rsp
  4060b1:	5b                   	pop    %rbx
  4060b2:	5d                   	pop    %rbp
  4060b3:	41 5c                	pop    %r12
  4060b5:	c3                   	retq   
  4060b6:	48 63 ef             	movslq %edi,%rbp
  4060b9:	66 0f 28 d0          	movapd %xmm0,%xmm2
  4060bd:	48 8d 44 ed 00       	lea    0x0(%rbp,%rbp,8),%rax
  4060c2:	44 8b 04 ad b4 d8 60 	mov    0x60d8b4(,%rbp,4),%r8d
  4060c9:	00 
  4060ca:	31 ff                	xor    %edi,%edi
  4060cc:	f2 0f 59 15 9c 3d 00 	mulsd  0x3d9c(%rip),%xmm2        # 409e70 <__dso_handle+0x248>
  4060d3:	00 
  4060d4:	f2 0f 10 1d 8c 3e 00 	movsd  0x3e8c(%rip),%xmm3        # 409f68 <__dso_handle+0x340>
  4060db:	00 
  4060dc:	48 8d 04 c0          	lea    (%rax,%rax,8),%rax
  4060e0:	f2 0f 10 25 88 3e 00 	movsd  0x3e88(%rip),%xmm4        # 409f70 <__dso_handle+0x348>
  4060e7:	00 
  4060e8:	48 8d 14 c5 00 00 00 	lea    0x0(,%rax,8),%rdx
  4060ef:	00 
  4060f0:	49 89 c1             	mov    %rax,%r9
  4060f3:	48 8d b2 60 db 60 00 	lea    0x60db60(%rdx),%rsi
  4060fa:	48 81 c2 80 d3 60 00 	add    $0x60d380,%rdx
  406101:	eb 18                	jmp    40611b <ASE+0xbb>
  406103:	f2 0f 59 cb          	mulsd  %xmm3,%xmm1
  406107:	83 c7 01             	add    $0x1,%edi
  40610a:	48 83 c6 08          	add    $0x8,%rsi
  40610e:	f2 0f 11 0a          	movsd  %xmm1,(%rdx)
  406112:	48 83 c2 08          	add    $0x8,%rdx
  406116:	83 ff 51             	cmp    $0x51,%edi
  406119:	74 4e                	je     406169 <ASE+0x109>
  40611b:	f2 0f 10 0a          	movsd  (%rdx),%xmm1
  40611f:	41 39 f8             	cmp    %edi,%r8d
  406122:	66 0f 28 c2          	movapd %xmm2,%xmm0
  406126:	f2 0f 59 c1          	mulsd  %xmm1,%xmm0
  40612a:	f2 0f 58 06          	addsd  (%rsi),%xmm0
  40612e:	f2 0f 11 06          	movsd  %xmm0,(%rsi)
  406132:	75 cf                	jne    406103 <ASE+0xa3>
  406134:	f2 0f 10 04 ed 08 d6 	movsd  0x60d608(,%rbp,8),%xmm0
  40613b:	60 00 
  40613d:	f2 0f 59 cb          	mulsd  %xmm3,%xmm1
  406141:	48 63 c7             	movslq %edi,%rax
  406144:	83 c7 01             	add    $0x1,%edi
  406147:	48 83 c6 08          	add    $0x8,%rsi
  40614b:	f2 0f 59 c4          	mulsd  %xmm4,%xmm0
  40614f:	49 8d 04 01          	lea    (%r9,%rax,1),%rax
  406153:	48 83 c2 08          	add    $0x8,%rdx
  406157:	83 ff 51             	cmp    $0x51,%edi
  40615a:	f2 0f 58 c8          	addsd  %xmm0,%xmm1
  40615e:	f2 0f 11 0c c5 80 d3 	movsd  %xmm1,0x60d380(,%rax,8)
  406165:	60 00 
  406167:	75 b2                	jne    40611b <ASE+0xbb>
  406169:	8b 11                	mov    (%rcx),%edx
  40616b:	85 d2                	test   %edx,%edx
  40616d:	0f 85 31 ff ff ff    	jne    4060a4 <ASE+0x44>
  406173:	48 63 04 ad b0 d8 60 	movslq 0x60d8b0(,%rbp,4),%rax
  40617a:	00 
  40617b:	48 8d 5c ed 00       	lea    0x0(%rbp,%rbp,8),%rbx
  406180:	48 8d 1c db          	lea    (%rbx,%rbx,8),%rbx
  406184:	48 8d 04 03          	lea    (%rbx,%rax,1),%rax
  406188:	f2 0f 10 04 c5 60 db 	movsd  0x60db60(,%rax,8),%xmm0
  40618f:	60 00 
  406191:	31 c0                	xor    %eax,%eax
  406193:	f2 0f 11 44 24 08    	movsd  %xmm0,0x8(%rsp)
  406199:	e8 f2 fd ff ff       	callq  405f90 <noise>
  40619e:	f2 0f 58 44 24 08    	addsd  0x8(%rsp),%xmm0
  4061a4:	66 0f 57 c9          	xorpd  %xmm1,%xmm1
  4061a8:	48 63 04 ad b0 d8 60 	movslq 0x60d8b0(,%rbp,4),%rax
  4061af:	00 
  4061b0:	f2 0f 10 1d 70 3d 00 	movsd  0x3d70(%rip),%xmm3        # 409f28 <__dso_handle+0x300>
  4061b7:	00 
  4061b8:	f2 0f 10 25 60 3d 00 	movsd  0x3d60(%rip),%xmm4        # 409f20 <__dso_handle+0x2f8>
  4061bf:	00 
  4061c0:	48 01 c3             	add    %rax,%rbx
  4061c3:	f2 0f 11 44 24 08    	movsd  %xmm0,0x8(%rsp)
  4061c9:	66 0f 28 c1          	movapd %xmm1,%xmm0
  4061cd:	f2 0f c2 0c dd 60 db 	cmpnltsd 0x60db60(,%rbx,8),%xmm1
  4061d4:	60 00 05 
  4061d7:	f2 0f c2 44 24 08 05 	cmpnltsd 0x8(%rsp),%xmm0
  4061de:	66 0f 28 d0          	movapd %xmm0,%xmm2
  4061e2:	66 0f 55 c4          	andnpd %xmm4,%xmm0
  4061e6:	66 0f 54 d3          	andpd  %xmm3,%xmm2
  4061ea:	66 0f 56 c2          	orpd   %xmm2,%xmm0
  4061ee:	66 0f 28 d1          	movapd %xmm1,%xmm2
  4061f2:	66 0f 55 cc          	andnpd %xmm4,%xmm1
  4061f6:	66 0f 54 d3          	andpd  %xmm3,%xmm2
  4061fa:	f2 0f 11 04 ed 08 d6 	movsd  %xmm0,0x60d608(,%rbp,8)
  406201:	60 00 
  406203:	66 0f 56 ca          	orpd   %xmm2,%xmm1
  406207:	66 0f 2e c1          	ucomisd %xmm1,%xmm0
  40620b:	0f 95 c0             	setne  %al
  40620e:	0f 9a c2             	setp   %dl
  406211:	09 d0                	or     %edx,%eax
  406213:	0f b6 c0             	movzbl %al,%eax
  406216:	41 01 04 24          	add    %eax,(%r12)
  40621a:	e9 85 fe ff ff       	jmpq   4060a4 <ASE+0x44>
  40621f:	90                   	nop

0000000000406220 <pole_learn>:
  406220:	41 55                	push   %r13
  406222:	4d 89 c5             	mov    %r8,%r13
  406225:	41 54                	push   %r12
  406227:	41 89 f4             	mov    %esi,%r12d
  40622a:	48 89 fe             	mov    %rdi,%rsi
  40622d:	31 ff                	xor    %edi,%edi
  40622f:	55                   	push   %rbp
  406230:	48 89 d5             	mov    %rdx,%rbp
  406233:	53                   	push   %rbx
  406234:	48 89 cb             	mov    %rcx,%rbx
  406237:	48 83 ec 18          	sub    $0x18,%rsp
  40623b:	48 89 e2             	mov    %rsp,%rdx
  40623e:	e8 cd f9 ff ff       	callq  405c10 <Decoder3Dn>
  406243:	83 3d 6a 76 20 00 ff 	cmpl   $0xffffffff,0x20766a(%rip)        # 60d8b4 <old_state>
  40624a:	89 05 60 76 20 00    	mov    %eax,0x207660(%rip)        # 60d8b0 <state>
  406250:	0f 84 c4 00 00 00    	je     40631a <pole_learn+0xfa>
  406256:	f2 0f 2a 03          	cvtsi2sdl (%rbx),%xmm0
  40625a:	66 0f 57 05 9e 3c 00 	xorpd  0x3c9e(%rip),%xmm0        # 409f00 <__dso_handle+0x2d8>
  406261:	00 
  406262:	31 ff                	xor    %edi,%edi
  406264:	44 89 e6             	mov    %r12d,%esi
  406267:	b8 01 00 00 00       	mov    $0x1,%eax
  40626c:	e8 ff fb ff ff       	callq  405e70 <ACE>
  406271:	48 89 d9             	mov    %rbx,%rcx
  406274:	31 ff                	xor    %edi,%edi
  406276:	4c 89 ea             	mov    %r13,%rdx
  406279:	44 89 e6             	mov    %r12d,%esi
  40627c:	b8 01 00 00 00       	mov    $0x1,%eax
  406281:	e8 da fd ff ff       	callq  406060 <ASE>
  406286:	f2 0f 59 05 f2 3b 00 	mulsd  0x3bf2(%rip),%xmm0        # 409e80 <__dso_handle+0x258>
  40628d:	00 
  40628e:	f2 0f 11 45 00       	movsd  %xmm0,0x0(%rbp)
  406293:	8b 0c 24             	mov    (%rsp),%ecx
  406296:	85 c9                	test   %ecx,%ecx
  406298:	74 0d                	je     4062a7 <pole_learn+0x87>
  40629a:	66 0f 57 05 5e 3c 00 	xorpd  0x3c5e(%rip),%xmm0        # 409f00 <__dso_handle+0x2d8>
  4062a1:	00 
  4062a2:	f2 0f 11 45 00       	movsd  %xmm0,0x0(%rbp)
  4062a7:	31 c0                	xor    %eax,%eax
  4062a9:	45 85 e4             	test   %r12d,%r12d
  4062ac:	48 89 45 08          	mov    %rax,0x8(%rbp)
  4062b0:	48 89 45 10          	mov    %rax,0x10(%rbp)
  4062b4:	8b 05 f6 75 20 00    	mov    0x2075f6(%rip),%eax        # 60d8b0 <state>
  4062ba:	89 05 f4 75 20 00    	mov    %eax,0x2075f4(%rip)        # 60d8b4 <old_state>
  4062c0:	8b 05 ee 75 20 00    	mov    0x2075ee(%rip),%eax        # 60d8b4 <old_state>
  4062c6:	89 05 ec 75 20 00    	mov    %eax,0x2075ec(%rip)        # 60d8b8 <old_state+0x4>
  4062cc:	8b 05 e6 75 20 00    	mov    0x2075e6(%rip),%eax        # 60d8b8 <old_state+0x4>
  4062d2:	89 05 e4 75 20 00    	mov    %eax,0x2075e4(%rip)        # 60d8bc <old_state+0x8>
  4062d8:	74 35                	je     40630f <pole_learn+0xef>
  4062da:	66 0f 1f 44 00 00    	nopw   0x0(%rax,%rax,1)
  4062e0:	31 ff                	xor    %edi,%edi
  4062e2:	e8 61 bf ff ff       	callq  402248 <time@plt>
  4062e7:	39 05 73 70 20 00    	cmp    %eax,0x207073(%rip)        # 60d360 <seed.3323>
  4062ed:	74 f1                	je     4062e0 <pole_learn+0xc0>
  4062ef:	31 ff                	xor    %edi,%edi
  4062f1:	e8 52 bf ff ff       	callq  402248 <time@plt>
  4062f6:	89 05 64 70 20 00    	mov    %eax,0x207064(%rip)        # 60d360 <seed.3323>
  4062fc:	89 c7                	mov    %eax,%edi
  4062fe:	31 c0                	xor    %eax,%eax
  406300:	e8 73 bb ff ff       	callq  401e78 <srandom@plt>
  406305:	c7 05 a5 75 20 00 ff 	movl   $0xffffffff,0x2075a5(%rip)        # 60d8b4 <old_state>
  40630c:	ff ff ff 
  40630f:	48 83 c4 18          	add    $0x18,%rsp
  406313:	5b                   	pop    %rbx
  406314:	5d                   	pop    %rbp
  406315:	41 5c                	pop    %r12
  406317:	41 5d                	pop    %r13
  406319:	c3                   	retq   
  40631a:	89 05 94 75 20 00    	mov    %eax,0x207594(%rip)        # 60d8b4 <old_state>
  406320:	8b 05 8e 75 20 00    	mov    0x20758e(%rip),%eax        # 60d8b4 <old_state>
  406326:	89 05 8c 75 20 00    	mov    %eax,0x20758c(%rip)        # 60d8b8 <old_state+0x4>
  40632c:	8b 05 86 75 20 00    	mov    0x207586(%rip),%eax        # 60d8b8 <old_state+0x4>
  406332:	89 05 84 75 20 00    	mov    %eax,0x207584(%rip)        # 60d8bc <old_state+0x8>
  406338:	e9 19 ff ff ff       	jmpq   406256 <pole_learn+0x36>
  40633d:	90                   	nop
  40633e:	90                   	nop
  40633f:	90                   	nop

0000000000406340 <XkwSetListColumns>:
  406340:	48 81 ec f8 00 00 00 	sub    $0xf8,%rsp
  406347:	48 63 f6             	movslq %esi,%rsi
  40634a:	ba 01 00 00 00       	mov    $0x1,%edx
  40634f:	48 89 74 24 08       	mov    %rsi,0x8(%rsp)
  406354:	48 89 e6             	mov    %rsp,%rsi
  406357:	48 c7 04 24 20 a0 40 	movq   $0x40a020,(%rsp)
  40635e:	00 
  40635f:	e8 44 ba ff ff       	callq  401da8 <XtSetValues@plt>
  406364:	48 81 c4 f8 00 00 00 	add    $0xf8,%rsp
  40636b:	c3                   	retq   
  40636c:	0f 1f 40 00          	nopl   0x0(%rax)

0000000000406370 <XkwSetWidgetFont>:
  406370:	48 81 ec f8 00 00 00 	sub    $0xf8,%rsp
  406377:	ba 01 00 00 00       	mov    $0x1,%edx
  40637c:	48 89 74 24 08       	mov    %rsi,0x8(%rsp)
  406381:	48 89 e6             	mov    %rsp,%rsi
  406384:	48 c7 04 24 77 c6 60 	movq   $0x60c677,(%rsp)
  40638b:	00 
  40638c:	e8 17 ba ff ff       	callq  401da8 <XtSetValues@plt>
  406391:	48 81 c4 f8 00 00 00 	add    $0xf8,%rsp
  406398:	c3                   	retq   
  406399:	0f 1f 80 00 00 00 00 	nopl   0x0(%rax)

00000000004063a0 <XkwSetWidgetColor>:
  4063a0:	48 81 ec f8 00 00 00 	sub    $0xf8,%rsp
  4063a7:	48 89 74 24 08       	mov    %rsi,0x8(%rsp)
  4063ac:	48 89 54 24 18       	mov    %rdx,0x18(%rsp)
  4063b1:	48 89 e6             	mov    %rsp,%rsi
  4063b4:	ba 02 00 00 00       	mov    $0x2,%edx
  4063b9:	48 c7 04 24 86 c6 60 	movq   $0x60c686,(%rsp)
  4063c0:	00 
  4063c1:	48 c7 44 24 10 e4 c5 	movq   $0x60c5e4,0x10(%rsp)
  4063c8:	60 00 
  4063ca:	e8 d9 b9 ff ff       	callq  401da8 <XtSetValues@plt>
  4063cf:	48 81 c4 f8 00 00 00 	add    $0xf8,%rsp
  4063d6:	c3                   	retq   
  4063d7:	66 0f 1f 84 00 00 00 	nopw   0x0(%rax,%rax,1)
  4063de:	00 00 

00000000004063e0 <XkwSetWidgetBorderColor>:
  4063e0:	48 81 ec f8 00 00 00 	sub    $0xf8,%rsp
  4063e7:	ba 01 00 00 00       	mov    $0x1,%edx
  4063ec:	48 89 74 24 08       	mov    %rsi,0x8(%rsp)
  4063f1:	48 89 e6             	mov    %rsp,%rsi
  4063f4:	48 c7 04 24 07 c6 60 	movq   $0x60c607,(%rsp)
  4063fb:	00 
  4063fc:	e8 a7 b9 ff ff       	callq  401da8 <XtSetValues@plt>
  406401:	48 81 c4 f8 00 00 00 	add    $0xf8,%rsp
  406408:	c3                   	retq   
  406409:	0f 1f 80 00 00 00 00 	nopl   0x0(%rax)

0000000000406410 <XkwSetWidgetLabel>:
  406410:	48 81 ec f8 00 00 00 	sub    $0xf8,%rsp
  406417:	ba 01 00 00 00       	mov    $0x1,%edx
  40641c:	48 89 74 24 08       	mov    %rsi,0x8(%rsp)
  406421:	48 89 e6             	mov    %rsp,%rsi
  406424:	48 c7 04 24 5d c7 60 	movq   $0x60c75d,(%rsp)
  40642b:	00 
  40642c:	e8 77 b9 ff ff       	callq  401da8 <XtSetValues@plt>
  406431:	48 81 c4 f8 00 00 00 	add    $0xf8,%rsp
  406438:	c3                   	retq   
  406439:	0f 1f 80 00 00 00 00 	nopl   0x0(%rax)

0000000000406440 <XkwSetSliderSafe>:
  406440:	48 81 ec f8 00 00 00 	sub    $0xf8,%rsp
  406447:	48 0f be f6          	movsbq %sil,%rsi
  40644b:	ba 01 00 00 00       	mov    $0x1,%edx
  406450:	48 89 74 24 08       	mov    %rsi,0x8(%rsp)
  406455:	48 89 e6             	mov    %rsp,%rsi
  406458:	48 c7 04 24 2f a0 40 	movq   $0x40a02f,(%rsp)
  40645f:	00 
  406460:	e8 43 b9 ff ff       	callq  401da8 <XtSetValues@plt>
  406465:	48 81 c4 f8 00 00 00 	add    $0xf8,%rsp
  40646c:	c3                   	retq   
  40646d:	0f 1f 00             	nopl   (%rax)

0000000000406470 <XkwMakeShell>:
  406470:	48 81 ec a8 00 00 00 	sub    $0xa8,%rsp
  406477:	48 63 d2             	movslq %edx,%rdx
  40647a:	48 89 f8             	mov    %rdi,%rax
  40647d:	48 89 54 24 08       	mov    %rdx,0x8(%rsp)
  406482:	48 8b 15 97 6b 20 00 	mov    0x206b97(%rip),%rdx        # 60d020 <applicationShellWidgetClass>
  406489:	48 63 c9             	movslq %ecx,%rcx
  40648c:	48 89 4c 24 18       	mov    %rcx,0x18(%rsp)
  406491:	49 89 e0             	mov    %rsp,%r8
  406494:	48 89 f7             	mov    %rsi,%rdi
  406497:	41 b9 02 00 00 00    	mov    $0x2,%r9d
  40649d:	48 89 c1             	mov    %rax,%rcx
  4064a0:	48 c7 04 24 25 c9 60 	movq   $0x60c925,(%rsp)
  4064a7:	00 
  4064a8:	48 c7 44 24 10 27 c9 	movq   $0x60c927,0x10(%rsp)
  4064af:	60 00 
  4064b1:	e8 f2 bc ff ff       	callq  4021a8 <XtAppCreateShell@plt>
  4064b6:	48 81 c4 a8 00 00 00 	add    $0xa8,%rsp
  4064bd:	c3                   	retq   
  4064be:	66 90                	xchg   %ax,%ax

00000000004064c0 <XkwParseColor>:
  4064c0:	55                   	push   %rbp
  4064c1:	48 89 f5             	mov    %rsi,%rbp
  4064c4:	53                   	push   %rbx
  4064c5:	48 89 fb             	mov    %rdi,%rbx
  4064c8:	48 83 ec 28          	sub    $0x28,%rsp
  4064cc:	48 63 87 e0 00 00 00 	movslq 0xe0(%rdi),%rax
  4064d3:	48 8b 97 e8 00 00 00 	mov    0xe8(%rdi),%rdx
  4064da:	48 8d 4c 24 10       	lea    0x10(%rsp),%rcx
  4064df:	49 89 e0             	mov    %rsp,%r8
  4064e2:	48 c1 e0 07          	shl    $0x7,%rax
  4064e6:	48 8b 74 10 50       	mov    0x50(%rax,%rdx,1),%rsi
  4064eb:	48 89 ea             	mov    %rbp,%rdx
  4064ee:	e8 55 b9 ff ff       	callq  401e48 <XAllocNamedColor@plt>
  4064f3:	85 c0                	test   %eax,%eax
  4064f5:	74 0c                	je     406503 <XkwParseColor+0x43>
  4064f7:	48 8b 44 24 10       	mov    0x10(%rsp),%rax
  4064fc:	48 83 c4 28          	add    $0x28,%rsp
  406500:	5b                   	pop    %rbx
  406501:	5d                   	pop    %rbp
  406502:	c3                   	retq   
  406503:	48 89 ee             	mov    %rbp,%rsi
  406506:	bf 39 a0 40 00       	mov    $0x40a039,%edi
  40650b:	31 c0                	xor    %eax,%eax
  40650d:	e8 46 b8 ff ff       	callq  401d58 <printf@plt>
  406512:	48 63 83 e0 00 00 00 	movslq 0xe0(%rbx),%rax
  406519:	48 8b 93 e8 00 00 00 	mov    0xe8(%rbx),%rdx
  406520:	48 c1 e0 07          	shl    $0x7,%rax
  406524:	48 8b 44 10 60       	mov    0x60(%rax,%rdx,1),%rax
  406529:	48 83 c4 28          	add    $0x28,%rsp
  40652d:	5b                   	pop    %rbx
  40652e:	5d                   	pop    %rbp
  40652f:	c3                   	retq   

0000000000406530 <XkwGetSliderOrient>:
  406530:	48 81 ec 08 01 00 00 	sub    $0x108,%rsp
  406537:	ba 01 00 00 00       	mov    $0x1,%edx
  40653c:	48 8d 84 24 fc 00 00 	lea    0xfc(%rsp),%rax
  406543:	00 
  406544:	48 89 e6             	mov    %rsp,%rsi
  406547:	48 c7 04 24 a9 c7 60 	movq   $0x60c7a9,(%rsp)
  40654e:	00 
  40654f:	48 89 44 24 08       	mov    %rax,0x8(%rsp)
  406554:	e8 1f b8 ff ff       	callq  401d78 <XtGetValues@plt>
  406559:	8b 84 24 fc 00 00 00 	mov    0xfc(%rsp),%eax
  406560:	48 81 c4 08 01 00 00 	add    $0x108,%rsp
  406567:	83 c0 24             	add    $0x24,%eax
  40656a:	c3                   	retq   
  40656b:	0f 1f 44 00 00       	nopl   0x0(%rax,%rax,1)

0000000000406570 <XkwWidgetUnhighlight>:
  406570:	41 54                	push   %r12
  406572:	ba 02 00 00 00       	mov    $0x2,%edx
  406577:	49 89 fc             	mov    %rdi,%r12
  40657a:	53                   	push   %rbx
  40657b:	48 81 ec 08 01 00 00 	sub    $0x108,%rsp
  406582:	48 8d 84 24 f8 00 00 	lea    0xf8(%rsp),%rax
  406589:	00 
  40658a:	48 89 e6             	mov    %rsp,%rsi
  40658d:	48 c7 04 24 86 c6 60 	movq   $0x60c686,(%rsp)
  406594:	00 
  406595:	48 c7 44 24 10 e4 c5 	movq   $0x60c5e4,0x10(%rsp)
  40659c:	60 00 
  40659e:	48 89 44 24 08       	mov    %rax,0x8(%rsp)
  4065a3:	48 8d 84 24 f0 00 00 	lea    0xf0(%rsp),%rax
  4065aa:	00 
  4065ab:	48 89 44 24 18       	mov    %rax,0x18(%rsp)
  4065b0:	e8 c3 b7 ff ff       	callq  401d78 <XtGetValues@plt>
  4065b5:	48 8b 84 24 f0 00 00 	mov    0xf0(%rsp),%rax
  4065bc:	00 
  4065bd:	48 89 e6             	mov    %rsp,%rsi
  4065c0:	4c 89 e7             	mov    %r12,%rdi
  4065c3:	ba 02 00 00 00       	mov    $0x2,%edx
  4065c8:	48 c7 04 24 86 c6 60 	movq   $0x60c686,(%rsp)
  4065cf:	00 
  4065d0:	48 c7 44 24 10 e4 c5 	movq   $0x60c5e4,0x10(%rsp)
  4065d7:	60 00 
  4065d9:	48 89 44 24 08       	mov    %rax,0x8(%rsp)
  4065de:	48 8b 84 24 f8 00 00 	mov    0xf8(%rsp),%rax
  4065e5:	00 
  4065e6:	48 89 44 24 18       	mov    %rax,0x18(%rsp)
  4065eb:	e8 b8 b7 ff ff       	callq  401da8 <XtSetValues@plt>
  4065f0:	48 81 c4 08 01 00 00 	add    $0x108,%rsp
  4065f7:	5b                   	pop    %rbx
  4065f8:	41 5c                	pop    %r12
  4065fa:	c3                   	retq   
  4065fb:	0f 1f 44 00 00       	nopl   0x0(%rax,%rax,1)

0000000000406600 <XkwWidgetHighlight>:
  406600:	41 54                	push   %r12
  406602:	ba 02 00 00 00       	mov    $0x2,%edx
  406607:	49 89 fc             	mov    %rdi,%r12
  40660a:	53                   	push   %rbx
  40660b:	48 81 ec 08 01 00 00 	sub    $0x108,%rsp
  406612:	48 8d 84 24 f8 00 00 	lea    0xf8(%rsp),%rax
  406619:	00 
  40661a:	48 89 e6             	mov    %rsp,%rsi
  40661d:	48 c7 04 24 86 c6 60 	movq   $0x60c686,(%rsp)
  406624:	00 
  406625:	48 c7 44 24 10 e4 c5 	movq   $0x60c5e4,0x10(%rsp)
  40662c:	60 00 
  40662e:	48 89 44 24 08       	mov    %rax,0x8(%rsp)
  406633:	48 8d 84 24 f0 00 00 	lea    0xf0(%rsp),%rax
  40663a:	00 
  40663b:	48 89 44 24 18       	mov    %rax,0x18(%rsp)
  406640:	e8 33 b7 ff ff       	callq  401d78 <XtGetValues@plt>
  406645:	48 8b 84 24 f0 00 00 	mov    0xf0(%rsp),%rax
  40664c:	00 
  40664d:	48 89 e6             	mov    %rsp,%rsi
  406650:	4c 89 e7             	mov    %r12,%rdi
  406653:	ba 02 00 00 00       	mov    $0x2,%edx
  406658:	48 c7 04 24 86 c6 60 	movq   $0x60c686,(%rsp)
  40665f:	00 
  406660:	48 c7 44 24 10 e4 c5 	movq   $0x60c5e4,0x10(%rsp)
  406667:	60 00 
  406669:	48 89 44 24 08       	mov    %rax,0x8(%rsp)
  40666e:	48 8b 84 24 f8 00 00 	mov    0xf8(%rsp),%rax
  406675:	00 
  406676:	48 89 44 24 18       	mov    %rax,0x18(%rsp)
  40667b:	e8 28 b7 ff ff       	callq  401da8 <XtSetValues@plt>
  406680:	48 81 c4 08 01 00 00 	add    $0x108,%rsp
  406687:	5b                   	pop    %rbx
  406688:	41 5c                	pop    %r12
  40668a:	c3                   	retq   
  40668b:	0f 1f 44 00 00       	nopl   0x0(%rax,%rax,1)

0000000000406690 <XkwGetWidgetDim>:
  406690:	41 54                	push   %r12
  406692:	4d 89 c4             	mov    %r8,%r12
  406695:	53                   	push   %rbx
  406696:	48 89 cb             	mov    %rcx,%rbx
  406699:	48 81 ec 08 01 00 00 	sub    $0x108,%rsp
  4066a0:	48 8d 84 24 fe 00 00 	lea    0xfe(%rsp),%rax
  4066a7:	00 
  4066a8:	48 89 74 24 08       	mov    %rsi,0x8(%rsp)
  4066ad:	48 89 54 24 18       	mov    %rdx,0x18(%rsp)
  4066b2:	48 89 e6             	mov    %rsp,%rsi
  4066b5:	ba 04 00 00 00       	mov    $0x4,%edx
  4066ba:	48 c7 04 24 25 c9 60 	movq   $0x60c925,(%rsp)
  4066c1:	00 
  4066c2:	48 89 44 24 28       	mov    %rax,0x28(%rsp)
  4066c7:	48 8d 84 24 fc 00 00 	lea    0xfc(%rsp),%rax
  4066ce:	00 
  4066cf:	48 c7 44 24 10 27 c9 	movq   $0x60c927,0x10(%rsp)
  4066d6:	60 00 
  4066d8:	48 c7 44 24 20 18 c9 	movq   $0x60c918,0x20(%rsp)
  4066df:	60 00 
  4066e1:	48 c7 44 24 30 9a c6 	movq   $0x60c69a,0x30(%rsp)
  4066e8:	60 00 
  4066ea:	48 89 44 24 38       	mov    %rax,0x38(%rsp)
  4066ef:	e8 84 b6 ff ff       	callq  401d78 <XtGetValues@plt>
  4066f4:	0f b7 84 24 fe 00 00 	movzwl 0xfe(%rsp),%eax
  4066fb:	00 
  4066fc:	89 03                	mov    %eax,(%rbx)
  4066fe:	0f b7 84 24 fc 00 00 	movzwl 0xfc(%rsp),%eax
  406705:	00 
  406706:	41 89 04 24          	mov    %eax,(%r12)
  40670a:	48 81 c4 08 01 00 00 	add    $0x108,%rsp
  406711:	5b                   	pop    %rbx
  406712:	41 5c                	pop    %r12
  406714:	c3                   	retq   
  406715:	0f 1f 44 00 00       	nopl   0x0(%rax,%rax,1)
  40671a:	66 0f 1f 44 00 00    	nopw   0x0(%rax,%rax,1)

0000000000406720 <XkwGetWidgetColor>:
  406720:	48 81 ec f8 00 00 00 	sub    $0xf8,%rsp
  406727:	48 89 74 24 08       	mov    %rsi,0x8(%rsp)
  40672c:	48 89 54 24 18       	mov    %rdx,0x18(%rsp)
  406731:	48 89 e6             	mov    %rsp,%rsi
  406734:	ba 02 00 00 00       	mov    $0x2,%edx
  406739:	48 c7 04 24 86 c6 60 	movq   $0x60c686,(%rsp)
  406740:	00 
  406741:	48 c7 44 24 10 e4 c5 	movq   $0x60c5e4,0x10(%rsp)
  406748:	60 00 
  40674a:	e8 29 b6 ff ff       	callq  401d78 <XtGetValues@plt>
  40674f:	48 81 c4 f8 00 00 00 	add    $0xf8,%rsp
  406756:	c3                   	retq   
  406757:	66 0f 1f 84 00 00 00 	nopw   0x0(%rax,%rax,1)
  40675e:	00 00 

0000000000406760 <XkwGetIntSliderValue>:
  406760:	48 81 ec 08 01 00 00 	sub    $0x108,%rsp
  406767:	ba 01 00 00 00       	mov    $0x1,%edx
  40676c:	48 8d 84 24 fc 00 00 	lea    0xfc(%rsp),%rax
  406773:	00 
  406774:	48 89 e6             	mov    %rsp,%rsi
  406777:	48 c7 04 24 4d a0 40 	movq   $0x40a04d,(%rsp)
  40677e:	00 
  40677f:	48 89 44 24 08       	mov    %rax,0x8(%rsp)
  406784:	e8 ef b5 ff ff       	callq  401d78 <XtGetValues@plt>
  406789:	8b 84 24 fc 00 00 00 	mov    0xfc(%rsp),%eax
  406790:	48 81 c4 08 01 00 00 	add    $0x108,%rsp
  406797:	c3                   	retq   
  406798:	0f 1f 84 00 00 00 00 	nopl   0x0(%rax,%rax,1)
  40679f:	00 

00000000004067a0 <XkwGetSliderValue>:
  4067a0:	48 81 ec 08 01 00 00 	sub    $0x108,%rsp
  4067a7:	ba 01 00 00 00       	mov    $0x1,%edx
  4067ac:	48 8d 84 24 f8 00 00 	lea    0xf8(%rsp),%rax
  4067b3:	00 
  4067b4:	48 89 e6             	mov    %rsp,%rsi
  4067b7:	48 c7 04 24 0b c9 60 	movq   $0x60c90b,(%rsp)
  4067be:	00 
  4067bf:	48 89 44 24 08       	mov    %rax,0x8(%rsp)
  4067c4:	e8 af b5 ff ff       	callq  401d78 <XtGetValues@plt>
  4067c9:	f2 0f 10 84 24 f8 00 	movsd  0xf8(%rsp),%xmm0
  4067d0:	00 00 
  4067d2:	48 81 c4 08 01 00 00 	add    $0x108,%rsp
  4067d9:	c3                   	retq   
  4067da:	66 0f 1f 44 00 00    	nopw   0x0(%rax,%rax,1)

00000000004067e0 <XkwMakeMenuButton>:
  4067e0:	48 81 ec f8 00 00 00 	sub    $0xf8,%rsp
  4067e7:	49 89 fa             	mov    %rdi,%r10
  4067ea:	4d 63 c9             	movslq %r9d,%r9
  4067ed:	48 63 84 24 00 01 00 	movslq 0x100(%rsp),%rax
  4067f4:	00 
  4067f5:	48 89 74 24 08       	mov    %rsi,0x8(%rsp)
  4067fa:	4c 89 c7             	mov    %r8,%rdi
  4067fd:	48 8b 35 34 68 20 00 	mov    0x206834(%rip),%rsi        # 60d038 <menuButtonWidgetClass>
  406804:	48 89 54 24 18       	mov    %rdx,0x18(%rsp)
  406809:	48 89 e1             	mov    %rsp,%rcx
  40680c:	41 b8 04 00 00 00    	mov    $0x4,%r8d
  406812:	4c 89 d2             	mov    %r10,%rdx
  406815:	48 c7 04 24 56 a0 40 	movq   $0x40a056,(%rsp)
  40681c:	00 
  40681d:	48 c7 44 24 10 5f a0 	movq   $0x40a05f,0x10(%rsp)
  406824:	40 00 
  406826:	48 c7 44 24 20 18 c9 	movq   $0x60c918,0x20(%rsp)
  40682d:	60 00 
  40682f:	4c 89 4c 24 28       	mov    %r9,0x28(%rsp)
  406834:	48 c7 44 24 30 9a c6 	movq   $0x60c69a,0x30(%rsp)
  40683b:	60 00 
  40683d:	48 89 44 24 38       	mov    %rax,0x38(%rsp)
  406842:	e8 81 b9 ff ff       	callq  4021c8 <XtCreateManagedWidget@plt>
  406847:	48 81 c4 f8 00 00 00 	add    $0xf8,%rsp
  40684e:	c3                   	retq   
  40684f:	90                   	nop

0000000000406850 <XkwMakeDialog>:
  406850:	48 81 ec f8 00 00 00 	sub    $0xf8,%rsp
  406857:	48 89 f8             	mov    %rdi,%rax
  40685a:	48 89 cf             	mov    %rcx,%rdi
  40685d:	48 89 74 24 08       	mov    %rsi,0x8(%rsp)
  406862:	48 8b 35 37 5d 20 00 	mov    0x205d37(%rip),%rsi        # 60c5a0 <dialogWidgetClass>
  406869:	48 89 54 24 18       	mov    %rdx,0x18(%rsp)
  40686e:	4c 89 44 24 28       	mov    %r8,0x28(%rsp)
  406873:	48 89 c2             	mov    %rax,%rdx
  406876:	48 89 4c 24 38       	mov    %rcx,0x38(%rsp)
  40687b:	41 b8 04 00 00 00    	mov    $0x4,%r8d
  406881:	48 89 e1             	mov    %rsp,%rcx
  406884:	48 c7 04 24 56 a0 40 	movq   $0x40a056,(%rsp)
  40688b:	00 
  40688c:	48 c7 44 24 10 5f a0 	movq   $0x40a05f,0x10(%rsp)
  406893:	40 00 
  406895:	48 c7 44 24 20 0b c9 	movq   $0x60c90b,0x20(%rsp)
  40689c:	60 00 
  40689e:	48 c7 44 24 30 5d c7 	movq   $0x60c75d,0x30(%rsp)
  4068a5:	60 00 
  4068a7:	e8 1c b9 ff ff       	callq  4021c8 <XtCreateManagedWidget@plt>
  4068ac:	48 81 c4 f8 00 00 00 	add    $0xf8,%rsp
  4068b3:	c3                   	retq   
  4068b4:	66 0f 1f 44 00 00    	nopw   0x0(%rax,%rax,1)
  4068ba:	66 0f 1f 44 00 00    	nopw   0x0(%rax,%rax,1)

00000000004068c0 <XkwMakeLabel>:
  4068c0:	48 81 ec f8 00 00 00 	sub    $0xf8,%rsp
  4068c7:	4d 63 c0             	movslq %r8d,%r8
  4068ca:	4d 63 c9             	movslq %r9d,%r9
  4068cd:	48 89 74 24 08       	mov    %rsi,0x8(%rsp)
  4068d2:	48 8b 35 af 5c 20 00 	mov    0x205caf(%rip),%rsi        # 60c588 <labelWidgetClass>
  4068d9:	48 89 54 24 18       	mov    %rdx,0x18(%rsp)
  4068de:	4c 89 44 24 28       	mov    %r8,0x28(%rsp)
  4068e3:	48 89 fa             	mov    %rdi,%rdx
  4068e6:	48 89 4c 24 48       	mov    %rcx,0x48(%rsp)
  4068eb:	41 b8 05 00 00 00    	mov    $0x5,%r8d
  4068f1:	48 89 e1             	mov    %rsp,%rcx
  4068f4:	bf 69 a0 40 00       	mov    $0x40a069,%edi
  4068f9:	48 c7 04 24 56 a0 40 	movq   $0x40a056,(%rsp)
  406900:	00 
  406901:	48 c7 44 24 10 5f a0 	movq   $0x40a05f,0x10(%rsp)
  406908:	40 00 
  40690a:	48 c7 44 24 20 18 c9 	movq   $0x60c918,0x20(%rsp)
  406911:	60 00 
  406913:	48 c7 44 24 30 9a c6 	movq   $0x60c69a,0x30(%rsp)
  40691a:	60 00 
  40691c:	4c 89 4c 24 38       	mov    %r9,0x38(%rsp)
  406921:	48 c7 44 24 40 5d c7 	movq   $0x60c75d,0x40(%rsp)
  406928:	60 00 
  40692a:	e8 99 b8 ff ff       	callq  4021c8 <XtCreateManagedWidget@plt>
  40692f:	48 81 c4 f8 00 00 00 	add    $0xf8,%rsp
  406936:	c3                   	retq   
  406937:	66 0f 1f 84 00 00 00 	nopw   0x0(%rax,%rax,1)
  40693e:	00 00 

0000000000406940 <XkwMakeForm>:
  406940:	48 81 ec f8 00 00 00 	sub    $0xf8,%rsp
  406947:	48 8b 35 4a 5c 20 00 	mov    0x205c4a(%rip),%rsi        # 60c598 <formWidgetClass>
  40694e:	48 89 fa             	mov    %rdi,%rdx
  406951:	48 89 e1             	mov    %rsp,%rcx
  406954:	45 31 c0             	xor    %r8d,%r8d
  406957:	bf 6f a0 40 00       	mov    $0x40a06f,%edi
  40695c:	e8 67 b8 ff ff       	callq  4021c8 <XtCreateManagedWidget@plt>
  406961:	48 81 c4 f8 00 00 00 	add    $0xf8,%rsp
  406968:	c3                   	retq   
  406969:	0f 1f 80 00 00 00 00 	nopl   0x0(%rax)

0000000000406970 <XkwMakePane>:
  406970:	48 81 ec f8 00 00 00 	sub    $0xf8,%rsp
  406977:	48 8b 35 12 5c 20 00 	mov    0x205c12(%rip),%rsi        # 60c590 <panedWidgetClass>
  40697e:	48 89 fa             	mov    %rdi,%rdx
  406981:	48 89 e1             	mov    %rsp,%rcx
  406984:	41 b8 02 00 00 00    	mov    $0x2,%r8d
  40698a:	bf 74 a0 40 00       	mov    $0x40a074,%edi
  40698f:	48 c7 04 24 25 c9 60 	movq   $0x60c925,(%rsp)
  406996:	00 
  406997:	48 c7 44 24 08 00 00 	movq   $0x0,0x8(%rsp)
  40699e:	00 00 
  4069a0:	48 c7 44 24 10 27 c9 	movq   $0x60c927,0x10(%rsp)
  4069a7:	60 00 
  4069a9:	48 c7 44 24 18 00 00 	movq   $0x0,0x18(%rsp)
  4069b0:	00 00 
  4069b2:	e8 11 b8 ff ff       	callq  4021c8 <XtCreateManagedWidget@plt>
  4069b7:	48 81 c4 f8 00 00 00 	add    $0xf8,%rsp
  4069be:	c3                   	retq   
  4069bf:	90                   	nop

00000000004069c0 <XkwMakeSimpleMenu>:
  4069c0:	41 57                	push   %r15
  4069c2:	49 89 fa             	mov    %rdi,%r10
  4069c5:	4c 89 c7             	mov    %r8,%rdi
  4069c8:	41 b8 04 00 00 00    	mov    $0x4,%r8d
  4069ce:	41 56                	push   %r14
  4069d0:	49 89 ce             	mov    %rcx,%r14
  4069d3:	41 55                	push   %r13
  4069d5:	41 54                	push   %r12
  4069d7:	55                   	push   %rbp
  4069d8:	53                   	push   %rbx
  4069d9:	4c 89 cb             	mov    %r9,%rbx
  4069dc:	48 81 ec 08 01 00 00 	sub    $0x108,%rsp
  4069e3:	48 63 84 24 48 01 00 	movslq 0x148(%rsp),%rax
  4069ea:	00 
  4069eb:	48 89 74 24 18       	mov    %rsi,0x18(%rsp)
  4069f0:	4c 8d 6c 24 10       	lea    0x10(%rsp),%r13
  4069f5:	48 8b 35 3c 66 20 00 	mov    0x20663c(%rip),%rsi        # 60d038 <menuButtonWidgetClass>
  4069fc:	48 89 54 24 28       	mov    %rdx,0x28(%rsp)
  406a01:	4c 89 d2             	mov    %r10,%rdx
  406a04:	4c 89 e9             	mov    %r13,%rcx
  406a07:	44 8b bc 24 40 01 00 	mov    0x140(%rsp),%r15d
  406a0e:	00 
  406a0f:	48 c7 44 24 10 56 a0 	movq   $0x40a056,0x10(%rsp)
  406a16:	40 00 
  406a18:	48 c7 44 24 20 5f a0 	movq   $0x40a05f,0x20(%rsp)
  406a1f:	40 00 
  406a21:	48 c7 44 24 30 18 c9 	movq   $0x60c918,0x30(%rsp)
  406a28:	60 00 
  406a2a:	48 89 44 24 38       	mov    %rax,0x38(%rsp)
  406a2f:	48 63 84 24 50 01 00 	movslq 0x150(%rsp),%rax
  406a36:	00 
  406a37:	48 c7 44 24 40 9a c6 	movq   $0x60c69a,0x40(%rsp)
  406a3e:	60 00 
  406a40:	48 89 44 24 48       	mov    %rax,0x48(%rsp)
  406a45:	e8 7e b7 ff ff       	callq  4021c8 <XtCreateManagedWidget@plt>
  406a4a:	48 8b 35 ef 65 20 00 	mov    0x2065ef(%rip),%rsi        # 60d040 <simpleMenuWidgetClass>
  406a51:	45 31 c0             	xor    %r8d,%r8d
  406a54:	4c 89 e9             	mov    %r13,%rcx
  406a57:	48 89 c2             	mov    %rax,%rdx
  406a5a:	bf 7a a0 40 00       	mov    $0x40a07a,%edi
  406a5f:	48 89 44 24 08       	mov    %rax,0x8(%rsp)
  406a64:	e8 4f b3 ff ff       	callq  401db8 <XtCreatePopupShell@plt>
  406a69:	45 85 ff             	test   %r15d,%r15d
  406a6c:	49 89 c4             	mov    %rax,%r12
  406a6f:	7e 4d                	jle    406abe <XkwMakeSimpleMenu+0xfe>
  406a71:	31 ed                	xor    %ebp,%ebp
  406a73:	48 8b 3b             	mov    (%rbx),%rdi
  406a76:	48 8b 35 03 5b 20 00 	mov    0x205b03(%rip),%rsi        # 60c580 <__bss_start>
  406a7d:	41 b8 01 00 00 00    	mov    $0x1,%r8d
  406a83:	4c 89 e9             	mov    %r13,%rcx
  406a86:	4c 89 e2             	mov    %r12,%rdx
  406a89:	48 c7 44 24 10 7f a0 	movq   $0x40a07f,0x10(%rsp)
  406a90:	40 00 
  406a92:	48 c7 44 24 18 1e 00 	movq   $0x1e,0x18(%rsp)
  406a99:	00 00 
  406a9b:	83 c5 01             	add    $0x1,%ebp
  406a9e:	48 83 c3 08          	add    $0x8,%rbx
  406aa2:	e8 21 b7 ff ff       	callq  4021c8 <XtCreateManagedWidget@plt>
  406aa7:	31 c9                	xor    %ecx,%ecx
  406aa9:	48 89 c7             	mov    %rax,%rdi
  406aac:	4c 89 f2             	mov    %r14,%rdx
  406aaf:	be 38 c6 60 00       	mov    $0x60c638,%esi
  406ab4:	e8 ff b3 ff ff       	callq  401eb8 <XtAddCallback@plt>
  406ab9:	44 39 fd             	cmp    %r15d,%ebp
  406abc:	75 b5                	jne    406a73 <XkwMakeSimpleMenu+0xb3>
  406abe:	48 8b 44 24 08       	mov    0x8(%rsp),%rax
  406ac3:	48 81 c4 08 01 00 00 	add    $0x108,%rsp
  406aca:	5b                   	pop    %rbx
  406acb:	5d                   	pop    %rbp
  406acc:	41 5c                	pop    %r12
  406ace:	41 5d                	pop    %r13
  406ad0:	41 5e                	pop    %r14
  406ad2:	41 5f                	pop    %r15
  406ad4:	c3                   	retq   
  406ad5:	0f 1f 44 00 00       	nopl   0x0(%rax,%rax,1)
  406ada:	66 0f 1f 44 00 00    	nopw   0x0(%rax,%rax,1)

0000000000406ae0 <XkwMakeSmeBSB>:
  406ae0:	48 89 5c 24 f0       	mov    %rbx,-0x10(%rsp)
  406ae5:	4c 89 64 24 f8       	mov    %r12,-0x8(%rsp)
  406aea:	48 81 ec 08 01 00 00 	sub    $0x108,%rsp
  406af1:	49 89 f4             	mov    %rsi,%r12
  406af4:	48 8b 35 85 5a 20 00 	mov    0x205a85(%rip),%rsi        # 60c580 <__bss_start>
  406afb:	48 89 d0             	mov    %rdx,%rax
  406afe:	48 89 e1             	mov    %rsp,%rcx
  406b01:	48 89 fa             	mov    %rdi,%rdx
  406b04:	45 31 c0             	xor    %r8d,%r8d
  406b07:	48 89 c7             	mov    %rax,%rdi
  406b0a:	e8 b9 b6 ff ff       	callq  4021c8 <XtCreateManagedWidget@plt>
  406b0f:	4c 89 e2             	mov    %r12,%rdx
  406b12:	48 89 c3             	mov    %rax,%rbx
  406b15:	48 89 c7             	mov    %rax,%rdi
  406b18:	31 c9                	xor    %ecx,%ecx
  406b1a:	be 38 c6 60 00       	mov    $0x60c638,%esi
  406b1f:	e8 94 b3 ff ff       	callq  401eb8 <XtAddCallback@plt>
  406b24:	48 89 d8             	mov    %rbx,%rax
  406b27:	4c 8b a4 24 00 01 00 	mov    0x100(%rsp),%r12
  406b2e:	00 
  406b2f:	48 8b 9c 24 f8 00 00 	mov    0xf8(%rsp),%rbx
  406b36:	00 
  406b37:	48 81 c4 08 01 00 00 	add    $0x108,%rsp
  406b3e:	c3                   	retq   
  406b3f:	90                   	nop

0000000000406b40 <XkwMakeCanvas>:
  406b40:	41 54                	push   %r12
  406b42:	4d 63 c0             	movslq %r8d,%r8
  406b45:	49 89 cc             	mov    %rcx,%r12
  406b48:	4d 63 c9             	movslq %r9d,%r9
  406b4b:	53                   	push   %rbx
  406b4c:	48 81 ec f8 00 00 00 	sub    $0xf8,%rsp
  406b53:	48 89 74 24 08       	mov    %rsi,0x8(%rsp)
  406b58:	48 8b 35 69 57 20 00 	mov    0x205769(%rip),%rsi        # 60c2c8 <canvasWidgetClass>
  406b5f:	48 89 e1             	mov    %rsp,%rcx
  406b62:	48 89 54 24 18       	mov    %rdx,0x18(%rsp)
  406b67:	4c 89 44 24 28       	mov    %r8,0x28(%rsp)
  406b6c:	48 89 fa             	mov    %rdi,%rdx
  406b6f:	41 b8 04 00 00 00    	mov    $0x4,%r8d
  406b75:	bf 8a a0 40 00       	mov    $0x40a08a,%edi
  406b7a:	4c 89 4c 24 38       	mov    %r9,0x38(%rsp)
  406b7f:	48 c7 04 24 56 a0 40 	movq   $0x40a056,(%rsp)
  406b86:	00 
  406b87:	48 c7 44 24 10 5f a0 	movq   $0x40a05f,0x10(%rsp)
  406b8e:	40 00 
  406b90:	48 c7 44 24 20 18 c9 	movq   $0x60c918,0x20(%rsp)
  406b97:	60 00 
  406b99:	48 c7 44 24 30 9a c6 	movq   $0x60c69a,0x30(%rsp)
  406ba0:	60 00 
  406ba2:	e8 21 b6 ff ff       	callq  4021c8 <XtCreateManagedWidget@plt>
  406ba7:	4c 89 e2             	mov    %r12,%rdx
  406baa:	48 89 c3             	mov    %rax,%rbx
  406bad:	48 89 c7             	mov    %rax,%rdi
  406bb0:	31 c9                	xor    %ecx,%ecx
  406bb2:	be 38 c6 60 00       	mov    $0x60c638,%esi
  406bb7:	e8 fc b2 ff ff       	callq  401eb8 <XtAddCallback@plt>
  406bbc:	48 89 d8             	mov    %rbx,%rax
  406bbf:	48 81 c4 f8 00 00 00 	add    $0xf8,%rsp
  406bc6:	5b                   	pop    %rbx
  406bc7:	41 5c                	pop    %r12
  406bc9:	c3                   	retq   
  406bca:	66 0f 1f 44 00 00    	nopw   0x0(%rax,%rax,1)

0000000000406bd0 <XkwMakeSafeSlider>:
  406bd0:	41 54                	push   %r12
  406bd2:	4d 63 c9             	movslq %r9d,%r9
  406bd5:	49 89 fa             	mov    %rdi,%r10
  406bd8:	49 89 cc             	mov    %rcx,%r12
  406bdb:	4c 89 c7             	mov    %r8,%rdi
  406bde:	53                   	push   %rbx
  406bdf:	48 81 ec 18 01 00 00 	sub    $0x118,%rsp
  406be6:	f2 0f 11 4c 24 10    	movsd  %xmm1,0x10(%rsp)
  406bec:	48 8b 44 24 10       	mov    0x10(%rsp),%rax
  406bf1:	4c 89 8c 24 88 00 00 	mov    %r9,0x88(%rsp)
  406bf8:	00 
  406bf9:	f2 0f 11 54 24 08    	movsd  %xmm2,0x8(%rsp)
  406bff:	4c 89 44 24 68       	mov    %r8,0x68(%rsp)
  406c04:	48 89 94 24 a8 00 00 	mov    %rdx,0xa8(%rsp)
  406c0b:	00 
  406c0c:	f2 0f 11 44 24 18    	movsd  %xmm0,0x18(%rsp)
  406c12:	48 89 b4 24 b8 00 00 	mov    %rsi,0xb8(%rsp)
  406c19:	00 
  406c1a:	48 8d 4c 24 20       	lea    0x20(%rsp),%rcx
  406c1f:	48 89 44 24 28       	mov    %rax,0x28(%rsp)
  406c24:	f2 0f 11 1c 24       	movsd  %xmm3,(%rsp)
  406c29:	4c 89 d2             	mov    %r10,%rdx
  406c2c:	48 8b 44 24 08       	mov    0x8(%rsp),%rax
  406c31:	41 b8 0e 00 00 00    	mov    $0xe,%r8d
  406c37:	48 c7 44 24 20 91 a0 	movq   $0x40a091,0x20(%rsp)
  406c3e:	40 00 
  406c40:	48 c7 44 24 30 95 a0 	movq   $0x40a095,0x30(%rsp)
  406c47:	40 00 
  406c49:	48 c7 44 24 40 0b c9 	movq   $0x60c90b,0x40(%rsp)
  406c50:	60 00 
  406c52:	48 89 44 24 38       	mov    %rax,0x38(%rsp)
  406c57:	48 8b 44 24 18       	mov    0x18(%rsp),%rax
  406c5c:	48 c7 44 24 50 99 a0 	movq   $0x40a099,0x50(%rsp)
  406c63:	40 00 
  406c65:	48 c7 44 24 60 5d c7 	movq   $0x60c75d,0x60(%rsp)
  406c6c:	60 00 
  406c6e:	48 c7 44 24 70 63 c7 	movq   $0x60c763,0x70(%rsp)
  406c75:	60 00 
  406c77:	48 c7 44 24 78 c8 00 	movq   $0xc8,0x78(%rsp)
  406c7e:	00 00 
  406c80:	48 89 44 24 48       	mov    %rax,0x48(%rsp)
  406c85:	48 8b 04 24          	mov    (%rsp),%rax
  406c89:	48 c7 84 24 80 00 00 	movq   $0x60c918,0x80(%rsp)
  406c90:	00 18 c9 60 00 
  406c95:	48 c7 84 24 90 00 00 	movq   $0x60c69a,0x90(%rsp)
  406c9c:	00 9a c6 60 00 
  406ca1:	48 c7 84 24 a0 00 00 	movq   $0x40a05f,0xa0(%rsp)
  406ca8:	00 5f a0 40 00 
  406cad:	48 c7 84 24 b0 00 00 	movq   $0x40a056,0xb0(%rsp)
  406cb4:	00 56 a0 40 00 
  406cb9:	48 89 44 24 58       	mov    %rax,0x58(%rsp)
  406cbe:	48 63 84 24 30 01 00 	movslq 0x130(%rsp),%rax
  406cc5:	00 
  406cc6:	48 c7 84 24 c0 00 00 	movq   $0x40a02f,0xc0(%rsp)
  406ccd:	00 2f a0 40 00 
  406cd2:	48 89 84 24 98 00 00 	mov    %rax,0x98(%rsp)
  406cd9:	00 
  406cda:	48 c7 84 24 c8 00 00 	movq   $0x0,0xc8(%rsp)
  406ce1:	00 00 00 00 00 
  406ce6:	8b 84 24 38 01 00 00 	mov    0x138(%rsp),%eax
  406ced:	48 8b 35 f4 4c 20 00 	mov    0x204cf4(%rip),%rsi        # 60b9e8 <sliderWidgetClass>
  406cf4:	48 c7 84 24 d0 00 00 	movq   $0x40a09d,0xd0(%rsp)
  406cfb:	00 9d a0 40 00 
  406d00:	48 c7 84 24 d8 00 00 	movq   $0x0,0xd8(%rsp)
  406d07:	00 00 00 00 00 
  406d0c:	48 c7 84 24 e0 00 00 	movq   $0x60c7a9,0xe0(%rsp)
  406d13:	00 a9 c7 60 00 
  406d18:	48 c7 84 24 f0 00 00 	movq   $0x40a0a8,0xf0(%rsp)
  406d1f:	00 a8 a0 40 00 
  406d24:	48 89 84 24 e8 00 00 	mov    %rax,0xe8(%rsp)
  406d2b:	00 
  406d2c:	48 63 84 24 40 01 00 	movslq 0x140(%rsp),%rax
  406d33:	00 
  406d34:	48 89 84 24 f8 00 00 	mov    %rax,0xf8(%rsp)
  406d3b:	00 
  406d3c:	e8 87 b4 ff ff       	callq  4021c8 <XtCreateManagedWidget@plt>
  406d41:	4c 89 e2             	mov    %r12,%rdx
  406d44:	48 89 c3             	mov    %rax,%rbx
  406d47:	48 89 c7             	mov    %rax,%rdi
  406d4a:	31 c9                	xor    %ecx,%ecx
  406d4c:	be b4 a0 40 00       	mov    $0x40a0b4,%esi
  406d51:	e8 62 b1 ff ff       	callq  401eb8 <XtAddCallback@plt>
  406d56:	48 89 d8             	mov    %rbx,%rax
  406d59:	48 81 c4 18 01 00 00 	add    $0x118,%rsp
  406d60:	5b                   	pop    %rbx
  406d61:	41 5c                	pop    %r12
  406d63:	c3                   	retq   
  406d64:	66 0f 1f 44 00 00    	nopw   0x0(%rax,%rax,1)
  406d6a:	66 0f 1f 44 00 00    	nopw   0x0(%rax,%rax,1)

0000000000406d70 <XkwMakeIntSlider>:
  406d70:	41 54                	push   %r12
  406d72:	49 89 cc             	mov    %rcx,%r12
  406d75:	4d 63 c9             	movslq %r9d,%r9
  406d78:	49 89 fa             	mov    %rdi,%r10
  406d7b:	4c 89 c7             	mov    %r8,%rdi
  406d7e:	53                   	push   %rbx
  406d7f:	48 81 ec 18 01 00 00 	sub    $0x118,%rsp
  406d86:	f2 0f 2a 84 24 40 01 	cvtsi2sdl 0x140(%rsp),%xmm0
  406d8d:	00 00 
  406d8f:	f2 0f 11 84 24 08 01 	movsd  %xmm0,0x108(%rsp)
  406d96:	00 00 
  406d98:	f2 0f 2a 84 24 48 01 	cvtsi2sdl 0x148(%rsp),%xmm0
  406d9f:	00 00 
  406da1:	f2 0f 11 84 24 00 01 	movsd  %xmm0,0x100(%rsp)
  406da8:	00 00 
  406daa:	48 8b 84 24 00 01 00 	mov    0x100(%rsp),%rax
  406db1:	00 
  406db2:	f2 0f 2a 84 24 50 01 	cvtsi2sdl 0x150(%rsp),%xmm0
  406db9:	00 00 
  406dbb:	f2 0f 11 84 24 f8 00 	movsd  %xmm0,0xf8(%rsp)
  406dc2:	00 00 
  406dc4:	48 0f be 8c 24 58 01 	movsbq 0x158(%rsp),%rcx
  406dcb:	00 00 
  406dcd:	4c 89 4c 24 58       	mov    %r9,0x58(%rsp)
  406dd2:	48 89 44 24 08       	mov    %rax,0x8(%rsp)
  406dd7:	48 8b 84 24 f8 00 00 	mov    0xf8(%rsp),%rax
  406dde:	00 
  406ddf:	4c 89 44 24 38       	mov    %r8,0x38(%rsp)
  406de4:	41 b8 0e 00 00 00    	mov    $0xe,%r8d
  406dea:	48 89 54 24 78       	mov    %rdx,0x78(%rsp)
  406def:	48 89 b4 24 88 00 00 	mov    %rsi,0x88(%rsp)
  406df6:	00 
  406df7:	4c 89 d2             	mov    %r10,%rdx
  406dfa:	48 c7 04 24 91 a0 40 	movq   $0x40a091,(%rsp)
  406e01:	00 
  406e02:	48 c7 44 24 10 95 a0 	movq   $0x40a095,0x10(%rsp)
  406e09:	40 00 
  406e0b:	48 89 44 24 18       	mov    %rax,0x18(%rsp)
  406e10:	48 8b 84 24 08 01 00 	mov    0x108(%rsp),%rax
  406e17:	00 
  406e18:	48 c7 44 24 20 0b c9 	movq   $0x60c90b,0x20(%rsp)
  406e1f:	60 00 
  406e21:	48 c7 44 24 30 5d c7 	movq   $0x60c75d,0x30(%rsp)
  406e28:	60 00 
  406e2a:	48 c7 44 24 40 63 c7 	movq   $0x60c763,0x40(%rsp)
  406e31:	60 00 
  406e33:	48 c7 44 24 48 c8 00 	movq   $0xc8,0x48(%rsp)
  406e3a:	00 00 
  406e3c:	48 89 44 24 28       	mov    %rax,0x28(%rsp)
  406e41:	48 63 84 24 30 01 00 	movslq 0x130(%rsp),%rax
  406e48:	00 
  406e49:	48 c7 44 24 50 18 c9 	movq   $0x60c918,0x50(%rsp)
  406e50:	60 00 
  406e52:	48 c7 44 24 60 9a c6 	movq   $0x60c69a,0x60(%rsp)
  406e59:	60 00 
  406e5b:	48 c7 44 24 70 5f a0 	movq   $0x40a05f,0x70(%rsp)
  406e62:	40 00 
  406e64:	48 c7 84 24 80 00 00 	movq   $0x40a056,0x80(%rsp)
  406e6b:	00 56 a0 40 00 
  406e70:	48 c7 84 24 90 00 00 	movq   $0x40a09d,0x90(%rsp)
  406e77:	00 9d a0 40 00 
  406e7c:	48 89 44 24 68       	mov    %rax,0x68(%rsp)
  406e81:	48 89 8c 24 98 00 00 	mov    %rcx,0x98(%rsp)
  406e88:	00 
  406e89:	48 89 e1             	mov    %rsp,%rcx
  406e8c:	8b 84 24 38 01 00 00 	mov    0x138(%rsp),%eax
  406e93:	48 8b 35 4e 4b 20 00 	mov    0x204b4e(%rip),%rsi        # 60b9e8 <sliderWidgetClass>
  406e9a:	48 c7 84 24 a0 00 00 	movq   $0x60c7a9,0xa0(%rsp)
  406ea1:	00 a9 c7 60 00 
  406ea6:	48 c7 84 24 b0 00 00 	movq   $0x40a0a8,0xb0(%rsp)
  406ead:	00 a8 a0 40 00 
  406eb2:	48 c7 84 24 c0 00 00 	movq   $0x40a0be,0xc0(%rsp)
  406eb9:	00 be a0 40 00 
  406ebe:	48 c7 84 24 c8 00 00 	movq   $0x1,0xc8(%rsp)
  406ec5:	00 01 00 00 00 
  406eca:	48 c7 84 24 d0 00 00 	movq   $0x40a02f,0xd0(%rsp)
  406ed1:	00 2f a0 40 00 
  406ed6:	48 c7 84 24 d8 00 00 	movq   $0x1,0xd8(%rsp)
  406edd:	00 01 00 00 00 
  406ee2:	48 89 84 24 a8 00 00 	mov    %rax,0xa8(%rsp)
  406ee9:	00 
  406eea:	48 63 84 24 60 01 00 	movslq 0x160(%rsp),%rax
  406ef1:	00 
  406ef2:	48 89 84 24 b8 00 00 	mov    %rax,0xb8(%rsp)
  406ef9:	00 
  406efa:	e8 c9 b2 ff ff       	callq  4021c8 <XtCreateManagedWidget@plt>
  406eff:	4c 89 e2             	mov    %r12,%rdx
  406f02:	48 89 c3             	mov    %rax,%rbx
  406f05:	48 89 c7             	mov    %rax,%rdi
  406f08:	31 c9                	xor    %ecx,%ecx
  406f0a:	be b4 a0 40 00       	mov    $0x40a0b4,%esi
  406f0f:	e8 a4 af ff ff       	callq  401eb8 <XtAddCallback@plt>
  406f14:	48 89 d8             	mov    %rbx,%rax
  406f17:	48 81 c4 18 01 00 00 	add    $0x118,%rsp
  406f1e:	5b                   	pop    %rbx
  406f1f:	41 5c                	pop    %r12
  406f21:	c3                   	retq   
  406f22:	0f 1f 80 00 00 00 00 	nopl   0x0(%rax)
  406f29:	0f 1f 80 00 00 00 00 	nopl   0x0(%rax)

0000000000406f30 <XkwMakeSlider>:
  406f30:	41 54                	push   %r12
  406f32:	49 89 cc             	mov    %rcx,%r12
  406f35:	4d 63 c9             	movslq %r9d,%r9
  406f38:	49 89 fa             	mov    %rdi,%r10
  406f3b:	4c 89 c7             	mov    %r8,%rdi
  406f3e:	53                   	push   %rbx
  406f3f:	48 81 ec 18 01 00 00 	sub    $0x118,%rsp
  406f46:	f2 0f 11 4c 24 10    	movsd  %xmm1,0x10(%rsp)
  406f4c:	48 8b 44 24 10       	mov    0x10(%rsp),%rax
  406f51:	48 0f be 8c 24 40 01 	movsbq 0x140(%rsp),%rcx
  406f58:	00 00 
  406f5a:	f2 0f 11 54 24 08    	movsd  %xmm2,0x8(%rsp)
  406f60:	4c 89 4c 24 78       	mov    %r9,0x78(%rsp)
  406f65:	4c 89 44 24 58       	mov    %r8,0x58(%rsp)
  406f6a:	f2 0f 11 44 24 18    	movsd  %xmm0,0x18(%rsp)
  406f70:	48 89 94 24 98 00 00 	mov    %rdx,0x98(%rsp)
  406f77:	00 
  406f78:	41 b8 0d 00 00 00    	mov    $0xd,%r8d
  406f7e:	48 89 44 24 28       	mov    %rax,0x28(%rsp)
  406f83:	4c 89 d2             	mov    %r10,%rdx
  406f86:	48 8b 44 24 08       	mov    0x8(%rsp),%rax
  406f8b:	48 89 b4 24 a8 00 00 	mov    %rsi,0xa8(%rsp)
  406f92:	00 
  406f93:	48 89 8c 24 b8 00 00 	mov    %rcx,0xb8(%rsp)
  406f9a:	00 
  406f9b:	48 8d 4c 24 20       	lea    0x20(%rsp),%rcx
  406fa0:	48 c7 44 24 20 91 a0 	movq   $0x40a091,0x20(%rsp)
  406fa7:	40 00 
  406fa9:	48 c7 44 24 30 95 a0 	movq   $0x40a095,0x30(%rsp)
  406fb0:	40 00 
  406fb2:	48 89 44 24 38       	mov    %rax,0x38(%rsp)
  406fb7:	48 8b 44 24 18       	mov    0x18(%rsp),%rax
  406fbc:	48 c7 44 24 40 0b c9 	movq   $0x60c90b,0x40(%rsp)
  406fc3:	60 00 
  406fc5:	48 c7 44 24 50 5d c7 	movq   $0x60c75d,0x50(%rsp)
  406fcc:	60 00 
  406fce:	48 c7 44 24 60 63 c7 	movq   $0x60c763,0x60(%rsp)
  406fd5:	60 00 
  406fd7:	48 c7 44 24 68 c8 00 	movq   $0xc8,0x68(%rsp)
  406fde:	00 00 
  406fe0:	48 89 44 24 48       	mov    %rax,0x48(%rsp)
  406fe5:	48 63 84 24 30 01 00 	movslq 0x130(%rsp),%rax
  406fec:	00 
  406fed:	48 c7 44 24 70 18 c9 	movq   $0x60c918,0x70(%rsp)
  406ff4:	60 00 
  406ff6:	48 c7 84 24 80 00 00 	movq   $0x60c69a,0x80(%rsp)
  406ffd:	00 9a c6 60 00 
  407002:	48 c7 84 24 90 00 00 	movq   $0x40a05f,0x90(%rsp)
  407009:	00 5f a0 40 00 
  40700e:	48 c7 84 24 a0 00 00 	movq   $0x40a056,0xa0(%rsp)
  407015:	00 56 a0 40 00 
  40701a:	48 c7 84 24 b0 00 00 	movq   $0x40a09d,0xb0(%rsp)
  407021:	00 9d a0 40 00 
  407026:	48 c7 84 24 c0 00 00 	movq   $0x60c7a9,0xc0(%rsp)
  40702d:	00 a9 c7 60 00 
  407032:	48 89 84 24 88 00 00 	mov    %rax,0x88(%rsp)
  407039:	00 
  40703a:	8b 84 24 38 01 00 00 	mov    0x138(%rsp),%eax
  407041:	48 89 84 24 c8 00 00 	mov    %rax,0xc8(%rsp)
  407048:	00 
  407049:	48 63 84 24 48 01 00 	movslq 0x148(%rsp),%rax
  407050:	00 
  407051:	48 8b 35 90 49 20 00 	mov    0x204990(%rip),%rsi        # 60b9e8 <sliderWidgetClass>
  407058:	48 c7 84 24 d0 00 00 	movq   $0x40a0a8,0xd0(%rsp)
  40705f:	00 a8 a0 40 00 
  407064:	48 c7 84 24 e0 00 00 	movq   $0x40a02f,0xe0(%rsp)
  40706b:	00 2f a0 40 00 
  407070:	48 c7 84 24 e8 00 00 	movq   $0x1,0xe8(%rsp)
  407077:	00 01 00 00 00 
  40707c:	48 89 84 24 d8 00 00 	mov    %rax,0xd8(%rsp)
  407083:	00 
  407084:	e8 3f b1 ff ff       	callq  4021c8 <XtCreateManagedWidget@plt>
  407089:	4c 89 e2             	mov    %r12,%rdx
  40708c:	48 89 c3             	mov    %rax,%rbx
  40708f:	48 89 c7             	mov    %rax,%rdi
  407092:	31 c9                	xor    %ecx,%ecx
  407094:	be b4 a0 40 00       	mov    $0x40a0b4,%esi
  407099:	e8 1a ae ff ff       	callq  401eb8 <XtAddCallback@plt>
  40709e:	48 89 d8             	mov    %rbx,%rax
  4070a1:	48 81 c4 18 01 00 00 	add    $0x118,%rsp
  4070a8:	5b                   	pop    %rbx
  4070a9:	41 5c                	pop    %r12
  4070ab:	c3                   	retq   
  4070ac:	0f 1f 40 00          	nopl   0x0(%rax)

00000000004070b0 <XkwMakeScrollCanvas>:
  4070b0:	48 89 6c 24 d8       	mov    %rbp,-0x28(%rsp)
  4070b5:	4c 89 64 24 e0       	mov    %r12,-0x20(%rsp)
  4070ba:	44 89 cd             	mov    %r9d,%ebp
  4070bd:	4c 89 74 24 f0       	mov    %r14,-0x10(%rsp)
  4070c2:	4c 89 7c 24 f8       	mov    %r15,-0x8(%rsp)
  4070c7:	49 89 ce             	mov    %rcx,%r14
  4070ca:	48 89 5c 24 d0       	mov    %rbx,-0x30(%rsp)
  4070cf:	4c 89 6c 24 e8       	mov    %r13,-0x18(%rsp)
  4070d4:	48 81 ec 48 01 00 00 	sub    $0x148,%rsp
  4070db:	8b 84 24 50 01 00 00 	mov    0x150(%rsp),%eax
  4070e2:	45 89 c4             	mov    %r8d,%r12d
  4070e5:	41 39 c0             	cmp    %eax,%r8d
  4070e8:	41 0f 9c c7          	setl   %r15b
  4070ec:	45 84 ff             	test   %r15b,%r15b
  4070ef:	74 09                	je     4070fa <XkwMakeScrollCanvas+0x4a>
  4070f1:	41 39 c1             	cmp    %eax,%r9d
  4070f4:	0f 8c 4b 01 00 00    	jl     407245 <XkwMakeScrollCanvas+0x195>
  4070fa:	48 89 74 24 28       	mov    %rsi,0x28(%rsp)
  4070ff:	48 8d 5c 24 20       	lea    0x20(%rsp),%rbx
  407104:	48 8b 35 85 54 20 00 	mov    0x205485(%rip),%rsi        # 60c590 <panedWidgetClass>
  40710b:	48 89 54 24 38       	mov    %rdx,0x38(%rsp)
  407110:	41 b8 02 00 00 00    	mov    $0x2,%r8d
  407116:	48 89 fa             	mov    %rdi,%rdx
  407119:	48 89 d9             	mov    %rbx,%rcx
  40711c:	bf c8 a0 40 00       	mov    $0x40a0c8,%edi
  407121:	48 c7 44 24 20 56 a0 	movq   $0x40a056,0x20(%rsp)
  407128:	40 00 
  40712a:	48 c7 44 24 30 5f a0 	movq   $0x40a05f,0x30(%rsp)
  407131:	40 00 
  407133:	e8 90 b0 ff ff       	callq  4021c8 <XtCreateManagedWidget@plt>
  407138:	49 89 c5             	mov    %rax,%r13
  40713b:	48 8b 35 86 51 20 00 	mov    0x205186(%rip),%rsi        # 60c2c8 <canvasWidgetClass>
  407142:	49 63 c4             	movslq %r12d,%rax
  407145:	48 89 d9             	mov    %rbx,%rcx
  407148:	48 89 44 24 48       	mov    %rax,0x48(%rsp)
  40714d:	41 b8 04 00 00 00    	mov    $0x4,%r8d
  407153:	48 63 c5             	movslq %ebp,%rax
  407156:	4c 89 ea             	mov    %r13,%rdx
  407159:	bf 8a a0 40 00       	mov    $0x40a08a,%edi
  40715e:	48 c7 44 24 20 56 a0 	movq   $0x40a056,0x20(%rsp)
  407165:	40 00 
  407167:	48 c7 44 24 28 00 00 	movq   $0x0,0x28(%rsp)
  40716e:	00 00 
  407170:	48 c7 44 24 30 5f a0 	movq   $0x40a05f,0x30(%rsp)
  407177:	40 00 
  407179:	48 c7 44 24 38 00 00 	movq   $0x0,0x38(%rsp)
  407180:	00 00 
  407182:	48 c7 44 24 40 18 c9 	movq   $0x60c918,0x40(%rsp)
  407189:	60 00 
  40718b:	48 c7 44 24 50 9a c6 	movq   $0x60c69a,0x50(%rsp)
  407192:	60 00 
  407194:	48 89 44 24 58       	mov    %rax,0x58(%rsp)
  407199:	e8 2a b0 ff ff       	callq  4021c8 <XtCreateManagedWidget@plt>
  40719e:	31 c9                	xor    %ecx,%ecx
  4071a0:	4c 89 f2             	mov    %r14,%rdx
  4071a3:	be 38 c6 60 00       	mov    $0x60c638,%esi
  4071a8:	48 89 c7             	mov    %rax,%rdi
  4071ab:	48 89 c3             	mov    %rax,%rbx
  4071ae:	e8 05 ad ff ff       	callq  401eb8 <XtAddCallback@plt>
  4071b3:	45 84 ff             	test   %r15b,%r15b
  4071b6:	0f 85 d4 00 00 00    	jne    407290 <XkwMakeScrollCanvas+0x1e0>
  4071bc:	3b ac 24 58 01 00 00 	cmp    0x158(%rsp),%ebp
  4071c3:	7d 45                	jge    40720a <XkwMakeScrollCanvas+0x15a>
  4071c5:	f2 0f 2a c5          	cvtsi2sd %ebp,%xmm0
  4071c9:	45 31 c9             	xor    %r9d,%r9d
  4071cc:	66 0f 57 c9          	xorpd  %xmm1,%xmm1
  4071d0:	41 b8 05 a1 40 00    	mov    $0x40a105,%r8d
  4071d6:	4c 89 f1             	mov    %r14,%rcx
  4071d9:	48 89 da             	mov    %rbx,%rdx
  4071dc:	31 f6                	xor    %esi,%esi
  4071de:	4c 89 ef             	mov    %r13,%rdi
  4071e1:	b8 03 00 00 00       	mov    $0x3,%eax
  4071e6:	c7 44 24 18 00 00 00 	movl   $0x0,0x18(%rsp)
  4071ed:	00 
  4071ee:	c7 44 24 10 00 00 00 	movl   $0x0,0x10(%rsp)
  4071f5:	00 
  4071f6:	c7 44 24 08 01 00 00 	movl   $0x1,0x8(%rsp)
  4071fd:	00 
  4071fe:	89 2c 24             	mov    %ebp,(%rsp)
  407201:	66 0f 28 d0          	movapd %xmm0,%xmm2
  407205:	e8 26 fd ff ff       	callq  406f30 <XkwMakeSlider>
  40720a:	48 89 d8             	mov    %rbx,%rax
  40720d:	48 8b ac 24 20 01 00 	mov    0x120(%rsp),%rbp
  407214:	00 
  407215:	48 8b 9c 24 18 01 00 	mov    0x118(%rsp),%rbx
  40721c:	00 
  40721d:	4c 8b a4 24 28 01 00 	mov    0x128(%rsp),%r12
  407224:	00 
  407225:	4c 8b ac 24 30 01 00 	mov    0x130(%rsp),%r13
  40722c:	00 
  40722d:	4c 8b b4 24 38 01 00 	mov    0x138(%rsp),%r14
  407234:	00 
  407235:	4c 8b bc 24 40 01 00 	mov    0x140(%rsp),%r15
  40723c:	00 
  40723d:	48 81 c4 48 01 00 00 	add    $0x148,%rsp
  407244:	c3                   	retq   
  407245:	48 89 74 24 28       	mov    %rsi,0x28(%rsp)
  40724a:	48 8d 5c 24 20       	lea    0x20(%rsp),%rbx
  40724f:	48 8b 35 42 53 20 00 	mov    0x205342(%rip),%rsi        # 60c598 <formWidgetClass>
  407256:	48 89 54 24 38       	mov    %rdx,0x38(%rsp)
  40725b:	41 b8 02 00 00 00    	mov    $0x2,%r8d
  407261:	48 89 fa             	mov    %rdi,%rdx
  407264:	48 89 d9             	mov    %rbx,%rcx
  407267:	bf 6f a0 40 00       	mov    $0x40a06f,%edi
  40726c:	48 c7 44 24 20 56 a0 	movq   $0x40a056,0x20(%rsp)
  407273:	40 00 
  407275:	48 c7 44 24 30 5f a0 	movq   $0x40a05f,0x30(%rsp)
  40727c:	40 00 
  40727e:	e8 45 af ff ff       	callq  4021c8 <XtCreateManagedWidget@plt>
  407283:	49 89 c5             	mov    %rax,%r13
  407286:	e9 b0 fe ff ff       	jmpq   40713b <XkwMakeScrollCanvas+0x8b>
  40728b:	0f 1f 44 00 00       	nopl   0x0(%rax,%rax,1)
  407290:	f2 41 0f 2a d4       	cvtsi2sd %r12d,%xmm2
  407295:	45 89 e1             	mov    %r12d,%r9d
  407298:	66 0f 57 c9          	xorpd  %xmm1,%xmm1
  40729c:	41 b8 05 a1 40 00    	mov    $0x40a105,%r8d
  4072a2:	4c 89 f1             	mov    %r14,%rcx
  4072a5:	31 d2                	xor    %edx,%edx
  4072a7:	48 89 de             	mov    %rbx,%rsi
  4072aa:	66 0f 28 c1          	movapd %xmm1,%xmm0
  4072ae:	4c 89 ef             	mov    %r13,%rdi
  4072b1:	b8 03 00 00 00       	mov    $0x3,%eax
  4072b6:	c7 44 24 18 00 00 00 	movl   $0x0,0x18(%rsp)
  4072bd:	00 
  4072be:	c7 44 24 10 00 00 00 	movl   $0x0,0x10(%rsp)
  4072c5:	00 
  4072c6:	c7 44 24 08 00 00 00 	movl   $0x0,0x8(%rsp)
  4072cd:	00 
  4072ce:	c7 04 24 00 00 00 00 	movl   $0x0,(%rsp)
  4072d5:	e8 56 fc ff ff       	callq  406f30 <XkwMakeSlider>
  4072da:	e9 dd fe ff ff       	jmpq   4071bc <XkwMakeScrollCanvas+0x10c>
  4072df:	90                   	nop

00000000004072e0 <XkwMakeList>:
  4072e0:	41 54                	push   %r12
  4072e2:	49 89 fa             	mov    %rdi,%r10
  4072e5:	49 89 cc             	mov    %rcx,%r12
  4072e8:	4c 89 c7             	mov    %r8,%rdi
  4072eb:	41 b8 07 00 00 00    	mov    $0x7,%r8d
  4072f1:	53                   	push   %rbx
  4072f2:	48 81 ec f8 00 00 00 	sub    $0xf8,%rsp
  4072f9:	48 63 84 24 10 01 00 	movslq 0x110(%rsp),%rax
  407300:	00 
  407301:	48 89 74 24 38       	mov    %rsi,0x38(%rsp)
  407306:	48 89 e1             	mov    %rsp,%rcx
  407309:	48 8b 35 18 5d 20 00 	mov    0x205d18(%rip),%rsi        # 60d028 <listWidgetClass>
  407310:	48 89 54 24 48       	mov    %rdx,0x48(%rsp)
  407315:	4c 89 d2             	mov    %r10,%rdx
  407318:	4c 89 4c 24 08       	mov    %r9,0x8(%rsp)
  40731d:	48 c7 04 24 cd a0 40 	movq   $0x40a0cd,(%rsp)
  407324:	00 
  407325:	48 c7 44 24 10 20 a0 	movq   $0x40a020,0x10(%rsp)
  40732c:	40 00 
  40732e:	48 c7 44 24 18 05 00 	movq   $0x5,0x18(%rsp)
  407335:	00 00 
  407337:	48 89 44 24 58       	mov    %rax,0x58(%rsp)
  40733c:	48 63 84 24 18 01 00 	movslq 0x118(%rsp),%rax
  407343:	00 
  407344:	48 c7 44 24 20 d2 a0 	movq   $0x40a0d2,0x20(%rsp)
  40734b:	40 00 
  40734d:	48 c7 44 24 28 01 00 	movq   $0x1,0x28(%rsp)
  407354:	00 00 
  407356:	48 c7 44 24 30 56 a0 	movq   $0x40a056,0x30(%rsp)
  40735d:	40 00 
  40735f:	48 c7 44 24 40 5f a0 	movq   $0x40a05f,0x40(%rsp)
  407366:	40 00 
  407368:	48 c7 44 24 50 18 c9 	movq   $0x60c918,0x50(%rsp)
  40736f:	60 00 
  407371:	48 c7 44 24 60 9a c6 	movq   $0x60c69a,0x60(%rsp)
  407378:	60 00 
  40737a:	48 89 44 24 68       	mov    %rax,0x68(%rsp)
  40737f:	e8 44 ae ff ff       	callq  4021c8 <XtCreateManagedWidget@plt>
  407384:	4c 89 e2             	mov    %r12,%rdx
  407387:	48 89 c3             	mov    %rax,%rbx
  40738a:	48 89 c7             	mov    %rax,%rdi
  40738d:	31 c9                	xor    %ecx,%ecx
  40738f:	be 38 c6 60 00       	mov    $0x60c638,%esi
  407394:	e8 1f ab ff ff       	callq  401eb8 <XtAddCallback@plt>
  407399:	48 89 d8             	mov    %rbx,%rax
  40739c:	48 81 c4 f8 00 00 00 	add    $0xf8,%rsp
  4073a3:	5b                   	pop    %rbx
  4073a4:	41 5c                	pop    %r12
  4073a6:	c3                   	retq   
  4073a7:	66 0f 1f 84 00 00 00 	nopw   0x0(%rax,%rax,1)
  4073ae:	00 00 

00000000004073b0 <XkwMakeToggle>:
  4073b0:	41 54                	push   %r12
  4073b2:	49 89 fa             	mov    %rdi,%r10
  4073b5:	49 89 cc             	mov    %rcx,%r12
  4073b8:	4c 89 c7             	mov    %r8,%rdi
  4073bb:	4d 63 c9             	movslq %r9d,%r9
  4073be:	41 b8 04 00 00 00    	mov    $0x4,%r8d
  4073c4:	53                   	push   %rbx
  4073c5:	48 81 ec f8 00 00 00 	sub    $0xf8,%rsp
  4073cc:	48 63 84 24 10 01 00 	movslq 0x110(%rsp),%rax
  4073d3:	00 
  4073d4:	48 89 74 24 08       	mov    %rsi,0x8(%rsp)
  4073d9:	48 89 e1             	mov    %rsp,%rcx
  4073dc:	48 8b 35 4d 5c 20 00 	mov    0x205c4d(%rip),%rsi        # 60d030 <toggleWidgetClass>
  4073e3:	48 89 54 24 18       	mov    %rdx,0x18(%rsp)
  4073e8:	4c 89 d2             	mov    %r10,%rdx
  4073eb:	4c 89 4c 24 28       	mov    %r9,0x28(%rsp)
  4073f0:	48 c7 04 24 56 a0 40 	movq   $0x40a056,(%rsp)
  4073f7:	00 
  4073f8:	48 c7 44 24 10 5f a0 	movq   $0x40a05f,0x10(%rsp)
  4073ff:	40 00 
  407401:	48 c7 44 24 20 18 c9 	movq   $0x60c918,0x20(%rsp)
  407408:	60 00 
  40740a:	48 c7 44 24 30 9a c6 	movq   $0x60c69a,0x30(%rsp)
  407411:	60 00 
  407413:	48 89 44 24 38       	mov    %rax,0x38(%rsp)
  407418:	e8 ab ad ff ff       	callq  4021c8 <XtCreateManagedWidget@plt>
  40741d:	4c 89 e2             	mov    %r12,%rdx
  407420:	48 89 c3             	mov    %rax,%rbx
  407423:	48 89 c7             	mov    %rax,%rdi
  407426:	31 c9                	xor    %ecx,%ecx
  407428:	be 38 c6 60 00       	mov    $0x60c638,%esi
  40742d:	e8 86 aa ff ff       	callq  401eb8 <XtAddCallback@plt>
  407432:	48 89 d8             	mov    %rbx,%rax
  407435:	48 81 c4 f8 00 00 00 	add    $0xf8,%rsp
  40743c:	5b                   	pop    %rbx
  40743d:	41 5c                	pop    %r12
  40743f:	c3                   	retq   

0000000000407440 <XkwMakeCommandR>:
  407440:	41 54                	push   %r12
  407442:	48 63 c9             	movslq %ecx,%rcx
  407445:	4d 63 c0             	movslq %r8d,%r8
  407448:	4d 89 cc             	mov    %r9,%r12
  40744b:	53                   	push   %rbx
  40744c:	48 81 ec f8 00 00 00 	sub    $0xf8,%rsp
  407453:	48 63 84 24 18 01 00 	movslq 0x118(%rsp),%rax
  40745a:	00 
  40745b:	48 89 74 24 08       	mov    %rsi,0x8(%rsp)
  407460:	48 89 54 24 18       	mov    %rdx,0x18(%rsp)
  407465:	48 8b 35 ac 5b 20 00 	mov    0x205bac(%rip),%rsi        # 60d018 <commandWidgetClass>
  40746c:	48 89 fa             	mov    %rdi,%rdx
  40746f:	48 8b bc 24 10 01 00 	mov    0x110(%rsp),%rdi
  407476:	00 
  407477:	48 89 4c 24 58       	mov    %rcx,0x58(%rsp)
  40747c:	48 89 e1             	mov    %rsp,%rcx
  40747f:	4c 89 44 24 68       	mov    %r8,0x68(%rsp)
  407484:	41 b8 07 00 00 00    	mov    $0x7,%r8d
  40748a:	48 c7 04 24 56 a0 40 	movq   $0x40a056,(%rsp)
  407491:	00 
  407492:	48 89 44 24 28       	mov    %rax,0x28(%rsp)
  407497:	48 63 84 24 20 01 00 	movslq 0x120(%rsp),%rax
  40749e:	00 
  40749f:	48 c7 44 24 10 5f a0 	movq   $0x40a05f,0x10(%rsp)
  4074a6:	40 00 
  4074a8:	48 c7 44 24 20 18 c9 	movq   $0x60c918,0x20(%rsp)
  4074af:	60 00 
  4074b1:	48 c7 44 24 30 9a c6 	movq   $0x60c69a,0x30(%rsp)
  4074b8:	60 00 
  4074ba:	48 c7 44 24 40 df a0 	movq   $0x40a0df,0x40(%rsp)
  4074c1:	40 00 
  4074c3:	48 c7 44 24 48 03 00 	movq   $0x3,0x48(%rsp)
  4074ca:	00 00 
  4074cc:	48 c7 44 24 50 ea a0 	movq   $0x40a0ea,0x50(%rsp)
  4074d3:	40 00 
  4074d5:	48 89 44 24 38       	mov    %rax,0x38(%rsp)
  4074da:	48 c7 44 24 60 f7 a0 	movq   $0x40a0f7,0x60(%rsp)
  4074e1:	40 00 
  4074e3:	e8 e0 ac ff ff       	callq  4021c8 <XtCreateManagedWidget@plt>
  4074e8:	4c 89 e2             	mov    %r12,%rdx
  4074eb:	48 89 c3             	mov    %rax,%rbx
  4074ee:	48 89 c7             	mov    %rax,%rdi
  4074f1:	31 c9                	xor    %ecx,%ecx
  4074f3:	be 38 c6 60 00       	mov    $0x60c638,%esi
  4074f8:	e8 bb a9 ff ff       	callq  401eb8 <XtAddCallback@plt>
  4074fd:	48 89 d8             	mov    %rbx,%rax
  407500:	48 81 c4 f8 00 00 00 	add    $0xf8,%rsp
  407507:	5b                   	pop    %rbx
  407508:	41 5c                	pop    %r12
  40750a:	c3                   	retq   
  40750b:	0f 1f 44 00 00       	nopl   0x0(%rax,%rax,1)

0000000000407510 <XkwMakeCommandBR>:
  407510:	53                   	push   %rbx
  407511:	48 63 c9             	movslq %ecx,%rcx
  407514:	4d 63 c0             	movslq %r8d,%r8
  407517:	4d 63 c9             	movslq %r9d,%r9
  40751a:	48 81 ec f0 00 00 00 	sub    $0xf0,%rsp
  407521:	48 8b 84 24 08 01 00 	mov    0x108(%rsp),%rax
  407528:	00 
  407529:	48 89 74 24 08       	mov    %rsi,0x8(%rsp)
  40752e:	48 89 54 24 18       	mov    %rdx,0x18(%rsp)
  407533:	48 8b 35 de 5a 20 00 	mov    0x205ade(%rip),%rsi        # 60d018 <commandWidgetClass>
  40753a:	48 89 fa             	mov    %rdi,%rdx
  40753d:	48 8b bc 24 18 01 00 	mov    0x118(%rsp),%rdi
  407544:	00 
  407545:	48 89 4c 24 28       	mov    %rcx,0x28(%rsp)
  40754a:	48 89 e1             	mov    %rsp,%rcx
  40754d:	48 89 44 24 48       	mov    %rax,0x48(%rsp)
  407552:	48 63 84 24 00 01 00 	movslq 0x100(%rsp),%rax
  407559:	00 
  40755a:	4c 89 44 24 38       	mov    %r8,0x38(%rsp)
  40755f:	41 b8 07 00 00 00    	mov    $0x7,%r8d
  407565:	4c 89 4c 24 58       	mov    %r9,0x58(%rsp)
  40756a:	48 c7 04 24 56 a0 40 	movq   $0x40a056,(%rsp)
  407571:	00 
  407572:	48 c7 44 24 10 5f a0 	movq   $0x40a05f,0x10(%rsp)
  407579:	40 00 
  40757b:	48 c7 44 24 20 ea a0 	movq   $0x40a0ea,0x20(%rsp)
  407582:	40 00 
  407584:	48 c7 44 24 30 f7 a0 	movq   $0x40a0f7,0x30(%rsp)
  40758b:	40 00 
  40758d:	48 c7 44 24 40 00 c6 	movq   $0x60c600,0x40(%rsp)
  407594:	60 00 
  407596:	48 c7 44 24 50 e4 c5 	movq   $0x60c5e4,0x50(%rsp)
  40759d:	60 00 
  40759f:	48 c7 44 24 60 86 c6 	movq   $0x60c686,0x60(%rsp)
  4075a6:	60 00 
  4075a8:	48 89 44 24 68       	mov    %rax,0x68(%rsp)
  4075ad:	e8 16 ac ff ff       	callq  4021c8 <XtCreateManagedWidget@plt>
  4075b2:	48 8b 94 24 10 01 00 	mov    0x110(%rsp),%rdx
  4075b9:	00 
  4075ba:	48 89 c3             	mov    %rax,%rbx
  4075bd:	48 89 c7             	mov    %rax,%rdi
  4075c0:	31 c9                	xor    %ecx,%ecx
  4075c2:	be 38 c6 60 00       	mov    $0x60c638,%esi
  4075c7:	e8 ec a8 ff ff       	callq  401eb8 <XtAddCallback@plt>
  4075cc:	48 89 d8             	mov    %rbx,%rax
  4075cf:	48 81 c4 f0 00 00 00 	add    $0xf0,%rsp
  4075d6:	5b                   	pop    %rbx
  4075d7:	c3                   	retq   
  4075d8:	0f 1f 84 00 00 00 00 	nopl   0x0(%rax,%rax,1)
  4075df:	00 

00000000004075e0 <XkwMakeCommand>:
  4075e0:	41 54                	push   %r12
  4075e2:	49 89 fa             	mov    %rdi,%r10
  4075e5:	49 89 cc             	mov    %rcx,%r12
  4075e8:	4c 89 c7             	mov    %r8,%rdi
  4075eb:	4d 63 c9             	movslq %r9d,%r9
  4075ee:	41 b8 04 00 00 00    	mov    $0x4,%r8d
  4075f4:	53                   	push   %rbx
  4075f5:	48 81 ec f8 00 00 00 	sub    $0xf8,%rsp
  4075fc:	48 63 84 24 10 01 00 	movslq 0x110(%rsp),%rax
  407603:	00 
  407604:	48 89 74 24 08       	mov    %rsi,0x8(%rsp)
  407609:	48 89 e1             	mov    %rsp,%rcx
  40760c:	48 8b 35 05 5a 20 00 	mov    0x205a05(%rip),%rsi        # 60d018 <commandWidgetClass>
  407613:	48 89 54 24 18       	mov    %rdx,0x18(%rsp)
  407618:	4c 89 d2             	mov    %r10,%rdx
  40761b:	4c 89 4c 24 28       	mov    %r9,0x28(%rsp)
  407620:	48 c7 04 24 56 a0 40 	movq   $0x40a056,(%rsp)
  407627:	00 
  407628:	48 c7 44 24 10 5f a0 	movq   $0x40a05f,0x10(%rsp)
  40762f:	40 00 
  407631:	48 c7 44 24 20 18 c9 	movq   $0x60c918,0x20(%rsp)
  407638:	60 00 
  40763a:	48 c7 44 24 30 9a c6 	movq   $0x60c69a,0x30(%rsp)
  407641:	60 00 
  407643:	48 89 44 24 38       	mov    %rax,0x38(%rsp)
  407648:	e8 7b ab ff ff       	callq  4021c8 <XtCreateManagedWidget@plt>
  40764d:	4c 89 e2             	mov    %r12,%rdx
  407650:	48 89 c3             	mov    %rax,%rbx
  407653:	48 89 c7             	mov    %rax,%rdi
  407656:	31 c9                	xor    %ecx,%ecx
  407658:	be 38 c6 60 00       	mov    $0x60c638,%esi
  40765d:	e8 56 a8 ff ff       	callq  401eb8 <XtAddCallback@plt>
  407662:	48 89 d8             	mov    %rbx,%rax
  407665:	48 81 c4 f8 00 00 00 	add    $0xf8,%rsp
  40766c:	5b                   	pop    %rbx
  40766d:	41 5c                	pop    %r12
  40766f:	c3                   	retq   

0000000000407670 <XkwSetIntSliderValue>:
  407670:	31 c0                	xor    %eax,%eax
  407672:	e9 f9 0e 00 00       	jmpq   408570 <XawIntSliderSetValue>
  407677:	66 0f 1f 84 00 00 00 	nopw   0x0(%rax,%rax,1)
  40767e:	00 00 

0000000000407680 <XkwSetSliderValue>:
  407680:	b8 01 00 00 00       	mov    $0x1,%eax
  407685:	e9 b6 0f 00 00       	jmpq   408640 <XawSliderSetValue>
  40768a:	66 0f 1f 44 00 00    	nopw   0x0(%rax,%rax,1)

0000000000407690 <XkwMakePopup>:
  407690:	48 89 5c 24 e8       	mov    %rbx,-0x18(%rsp)
  407695:	48 89 6c 24 f0       	mov    %rbp,-0x10(%rsp)
  40769a:	48 89 fb             	mov    %rdi,%rbx
  40769d:	4c 89 64 24 f8       	mov    %r12,-0x8(%rsp)
  4076a2:	48 81 ec 18 01 00 00 	sub    $0x118,%rsp
  4076a9:	85 f6                	test   %esi,%esi
  4076ab:	48 89 cd             	mov    %rcx,%rbp
  4076ae:	78 60                	js     407710 <XkwMakePopup+0x80>
  4076b0:	48 63 c6             	movslq %esi,%rax
  4076b3:	48 8b 35 56 59 20 00 	mov    0x205956(%rip),%rsi        # 60d010 <transientShellWidgetClass>
  4076ba:	48 89 e1             	mov    %rsp,%rcx
  4076bd:	48 89 44 24 08       	mov    %rax,0x8(%rsp)
  4076c2:	48 89 ef             	mov    %rbp,%rdi
  4076c5:	48 63 c2             	movslq %edx,%rax
  4076c8:	41 b8 02 00 00 00    	mov    $0x2,%r8d
  4076ce:	48 89 da             	mov    %rbx,%rdx
  4076d1:	48 c7 04 24 25 c9 60 	movq   $0x60c925,(%rsp)
  4076d8:	00 
  4076d9:	48 c7 44 24 10 27 c9 	movq   $0x60c927,0x10(%rsp)
  4076e0:	60 00 
  4076e2:	48 89 44 24 18       	mov    %rax,0x18(%rsp)
  4076e7:	e8 cc a6 ff ff       	callq  401db8 <XtCreatePopupShell@plt>
  4076ec:	48 8b 9c 24 00 01 00 	mov    0x100(%rsp),%rbx
  4076f3:	00 
  4076f4:	48 8b ac 24 08 01 00 	mov    0x108(%rsp),%rbp
  4076fb:	00 
  4076fc:	4c 8b a4 24 10 01 00 	mov    0x110(%rsp),%r12
  407703:	00 
  407704:	48 81 c4 18 01 00 00 	add    $0x118,%rsp
  40770b:	c3                   	retq   
  40770c:	0f 1f 40 00          	nopl   0x0(%rax)
  407710:	85 d2                	test   %edx,%edx
  407712:	79 9c                	jns    4076b0 <XkwMakePopup+0x20>
  407714:	48 8d 84 24 fa 00 00 	lea    0xfa(%rsp),%rax
  40771b:	00 
  40771c:	ba 02 00 00 00       	mov    $0x2,%edx
  407721:	48 89 e6             	mov    %rsp,%rsi
  407724:	48 c7 04 24 18 c9 60 	movq   $0x60c918,(%rsp)
  40772b:	00 
  40772c:	48 c7 44 24 10 9a c6 	movq   $0x60c69a,0x10(%rsp)
  407733:	60 00 
  407735:	48 89 44 24 08       	mov    %rax,0x8(%rsp)
  40773a:	48 8d 84 24 f8 00 00 	lea    0xf8(%rsp),%rax
  407741:	00 
  407742:	48 89 44 24 18       	mov    %rax,0x18(%rsp)
  407747:	e8 2c a6 ff ff       	callq  401d78 <XtGetValues@plt>
  40774c:	0f b7 94 24 f8 00 00 	movzwl 0xf8(%rsp),%edx
  407753:	00 
  407754:	0f b7 b4 24 fa 00 00 	movzwl 0xfa(%rsp),%esi
  40775b:	00 
  40775c:	48 8d 8c 24 fe 00 00 	lea    0xfe(%rsp),%rcx
  407763:	00 
  407764:	4c 8d 84 24 fc 00 00 	lea    0xfc(%rsp),%r8
  40776b:	00 
  40776c:	48 89 df             	mov    %rbx,%rdi
  40776f:	66 d1 ea             	shr    %dx
  407772:	66 d1 ee             	shr    %si
  407775:	0f bf d2             	movswl %dx,%edx
  407778:	0f bf f6             	movswl %si,%esi
  40777b:	e8 58 a6 ff ff       	callq  401dd8 <XtTranslateCoords@plt>
  407780:	0f bf b4 24 fe 00 00 	movswl 0xfe(%rsp),%esi
  407787:	00 
  407788:	0f bf 94 24 fc 00 00 	movswl 0xfc(%rsp),%edx
  40778f:	00 
  407790:	e9 1b ff ff ff       	jmpq   4076b0 <XkwMakePopup+0x20>
  407795:	90                   	nop
  407796:	90                   	nop
  407797:	90                   	nop
  407798:	90                   	nop
  407799:	90                   	nop
  40779a:	90                   	nop
  40779b:	90                   	nop
  40779c:	90                   	nop
  40779d:	90                   	nop
  40779e:	90                   	nop
  40779f:	90                   	nop

00000000004077a0 <DoubleInRange>:
  4077a0:	66 0f 28 d8          	movapd %xmm0,%xmm3
  4077a4:	66 0f 28 c1          	movapd %xmm1,%xmm0
  4077a8:	66 0f 2e cb          	ucomisd %xmm3,%xmm1
  4077ac:	77 08                	ja     4077b6 <DoubleInRange+0x16>
  4077ae:	66 0f 28 c2          	movapd %xmm2,%xmm0
  4077b2:	f2 0f 5d c3          	minsd  %xmm3,%xmm0
  4077b6:	f3 c3                	repz retq 
  4077b8:	0f 1f 84 00 00 00 00 	nopl   0x0(%rax,%rax,1)
  4077bf:	00 

00000000004077c0 <CompareEvents>:
  4077c0:	48 8b 47 18          	mov    0x18(%rdi),%rax
  4077c4:	48 39 46 18          	cmp    %rax,0x18(%rsi)
  4077c8:	74 06                	je     4077d0 <CompareEvents+0x10>
  4077ca:	31 c0                	xor    %eax,%eax
  4077cc:	c3                   	retq   
  4077cd:	0f 1f 00             	nopl   (%rax)
  4077d0:	8b 06                	mov    (%rsi),%eax
  4077d2:	3b 07                	cmp    (%rdi),%eax
  4077d4:	75 f4                	jne    4077ca <CompareEvents+0xa>
  4077d6:	48 8b 47 20          	mov    0x20(%rdi),%rax
  4077da:	48 39 46 20          	cmp    %rax,0x20(%rsi)
  4077de:	66 90                	xchg   %ax,%ax
  4077e0:	75 e8                	jne    4077ca <CompareEvents+0xa>
  4077e2:	83 3e 08             	cmpl   $0x8,(%rsi)
  4077e5:	76 06                	jbe    4077ed <CompareEvents+0x2d>
  4077e7:	b8 01 00 00 00       	mov    $0x1,%eax
  4077ec:	c3                   	retq   
  4077ed:	8b 06                	mov    (%rsi),%eax
  4077ef:	90                   	nop
  4077f0:	ff 24 c5 08 a1 40 00 	jmpq   *0x40a108(,%rax,8)
  4077f7:	8b 46 50             	mov    0x50(%rsi),%eax
  4077fa:	3b 47 50             	cmp    0x50(%rdi),%eax
  4077fd:	0f 1f 00             	nopl   (%rax)
  407800:	75 c8                	jne    4077ca <CompareEvents+0xa>
  407802:	8b 46 54             	mov    0x54(%rsi),%eax
  407805:	3b 47 54             	cmp    0x54(%rdi),%eax
  407808:	0f 94 c0             	sete   %al
  40780b:	0f b6 c0             	movzbl %al,%eax
  40780e:	c3                   	retq   
  40780f:	8b 46 50             	mov    0x50(%rsi),%eax
  407812:	3b 47 50             	cmp    0x50(%rdi),%eax
  407815:	0f 94 c0             	sete   %al
  407818:	0f b6 c0             	movzbl %al,%eax
  40781b:	c3                   	retq   
  40781c:	8b 46 50             	mov    0x50(%rsi),%eax
  40781f:	3b 47 50             	cmp    0x50(%rdi),%eax
  407822:	75 a6                	jne    4077ca <CompareEvents+0xa>
  407824:	8b 46 54             	mov    0x54(%rsi),%eax
  407827:	3b 47 54             	cmp    0x54(%rdi),%eax
  40782a:	75 9e                	jne    4077ca <CompareEvents+0xa>
  40782c:	8b 46 60             	mov    0x60(%rsi),%eax
  40782f:	3b 47 60             	cmp    0x60(%rdi),%eax
  407832:	0f 94 c0             	sete   %al
  407835:	0f b6 c0             	movzbl %al,%eax
  407838:	c3                   	retq   
  407839:	0f 1f 80 00 00 00 00 	nopl   0x0(%rax)

0000000000407840 <PeekNotifyEvent>:
  407840:	8b 42 08             	mov    0x8(%rdx),%eax
  407843:	49 89 f0             	mov    %rsi,%r8
  407846:	b9 01 00 00 00       	mov    $0x1,%ecx
  40784b:	83 c0 01             	add    $0x1,%eax
  40784e:	89 42 08             	mov    %eax,0x8(%rdx)
  407851:	3b 87 88 00 00 00    	cmp    0x88(%rdi),%eax
  407857:	74 14                	je     40786d <PeekNotifyEvent+0x2d>
  407859:	48 8b 32             	mov    (%rdx),%rsi
  40785c:	31 c0                	xor    %eax,%eax
  40785e:	4c 89 c7             	mov    %r8,%rdi
  407861:	e8 5a ff ff ff       	callq  4077c0 <CompareEvents>
  407866:	31 c9                	xor    %ecx,%ecx
  407868:	84 c0                	test   %al,%al
  40786a:	0f 95 c1             	setne  %cl
  40786d:	89 c8                	mov    %ecx,%eax
  40786f:	c3                   	retq   

0000000000407870 <EndSlide>:
  407870:	53                   	push   %rbx
  407871:	48 8b 87 98 00 00 00 	mov    0x98(%rdi),%rax
  407878:	48 89 fb             	mov    %rdi,%rbx
  40787b:	48 8b 97 78 01 00 00 	mov    0x178(%rdi),%rdx
  407882:	48 8b b7 a8 00 00 00 	mov    0xa8(%rdi),%rsi
  407889:	48 8b 78 08          	mov    0x8(%rax),%rdi
  40788d:	e8 b6 a8 ff ff       	callq  402148 <XDefineCursor@plt>
  407892:	48 8b 83 98 00 00 00 	mov    0x98(%rbx),%rax
  407899:	48 8b 78 08          	mov    0x8(%rax),%rdi
  40789d:	e8 26 a8 ff ff       	callq  4020c8 <XFlush@plt>
  4078a2:	c6 83 80 01 00 00 00 	movb   $0x0,0x180(%rbx)
  4078a9:	5b                   	pop    %rbx
  4078aa:	c3                   	retq   
  4078ab:	0f 1f 44 00 00       	nopl   0x0(%rax,%rax,1)

00000000004078b0 <StartSlide>:
  4078b0:	53                   	push   %rbx
  4078b1:	80 bf 80 01 00 00 00 	cmpb   $0x0,0x180(%rdi)
  4078b8:	48 89 fb             	mov    %rdi,%rbx
  4078bb:	75 6b                	jne    407928 <StartSlide+0x78>
  4078bd:	8b 01                	mov    (%rcx),%eax
  4078bf:	85 c0                	test   %eax,%eax
  4078c1:	75 4d                	jne    407910 <StartSlide+0x60>
  4078c3:	c6 87 80 01 00 00 43 	movb   $0x43,0x180(%rdi)
  4078ca:	80 bb 67 01 00 00 00 	cmpb   $0x0,0x167(%rbx)
  4078d1:	74 55                	je     407928 <StartSlide+0x78>
  4078d3:	83 bb e0 00 00 00 01 	cmpl   $0x1,0xe0(%rbx)
  4078da:	0f 84 96 00 00 00    	je     407976 <StartSlide+0xc6>
  4078e0:	48 8b 93 f8 00 00 00 	mov    0xf8(%rbx),%rdx
  4078e7:	48 8b 83 98 00 00 00 	mov    0x98(%rbx),%rax
  4078ee:	48 8b b3 a8 00 00 00 	mov    0xa8(%rbx),%rsi
  4078f5:	48 8b 78 08          	mov    0x8(%rax),%rdi
  4078f9:	e8 4a a8 ff ff       	callq  402148 <XDefineCursor@plt>
  4078fe:	48 8b 83 98 00 00 00 	mov    0x98(%rbx),%rax
  407905:	5b                   	pop    %rbx
  407906:	48 8b 78 08          	mov    0x8(%rax),%rdi
  40790a:	e9 b9 a7 ff ff       	jmpq   4020c8 <XFlush@plt>
  40790f:	90                   	nop
  407910:	48 8b 02             	mov    (%rdx),%rax
  407913:	0f b6 00             	movzbl (%rax),%eax
  407916:	3c 43                	cmp    $0x43,%al
  407918:	88 87 80 01 00 00    	mov    %al,0x180(%rdi)
  40791e:	74 aa                	je     4078ca <StartSlide+0x1a>
  407920:	8d 48 be             	lea    -0x42(%rax),%ecx
  407923:	80 f9 24             	cmp    $0x24,%cl
  407926:	76 08                	jbe    407930 <StartSlide+0x80>
  407928:	5b                   	pop    %rbx
  407929:	c3                   	retq   
  40792a:	66 0f 1f 44 00 00    	nopw   0x0(%rax,%rax,1)
  407930:	ba 01 00 00 00       	mov    $0x1,%edx
  407935:	48 b8 01 00 00 00 01 	movabs $0x100000001,%rax
  40793c:	00 00 00 
  40793f:	48 d3 e2             	shl    %cl,%rdx
  407942:	48 85 d0             	test   %rdx,%rax
  407945:	75 3b                	jne    407982 <StartSlide+0xd2>
  407947:	48 b8 02 00 00 00 02 	movabs $0x200000002,%rax
  40794e:	00 00 00 
  407951:	48 85 d0             	test   %rdx,%rax
  407954:	0f 85 79 ff ff ff    	jne    4078d3 <StartSlide+0x23>
  40795a:	48 b8 10 00 00 00 10 	movabs $0x1000000010,%rax
  407961:	00 00 00 
  407964:	48 85 d0             	test   %rdx,%rax
  407967:	74 bf                	je     407928 <StartSlide+0x78>
  407969:	83 bf e0 00 00 00 01 	cmpl   $0x1,0xe0(%rdi)
  407970:	0f 84 6a ff ff ff    	je     4078e0 <StartSlide+0x30>
  407976:	48 8b 93 10 01 00 00 	mov    0x110(%rbx),%rdx
  40797d:	e9 65 ff ff ff       	jmpq   4078e7 <StartSlide+0x37>
  407982:	83 bf e0 00 00 00 01 	cmpl   $0x1,0xe0(%rdi)
  407989:	74 0c                	je     407997 <StartSlide+0xe7>
  40798b:	48 8b 97 08 01 00 00 	mov    0x108(%rdi),%rdx
  407992:	e9 50 ff ff ff       	jmpq   4078e7 <StartSlide+0x37>
  407997:	48 8b 97 00 01 00 00 	mov    0x100(%rdi),%rdx
  40799e:	e9 44 ff ff ff       	jmpq   4078e7 <StartSlide+0x37>
  4079a3:	66 0f 1f 44 00 00    	nopw   0x0(%rax,%rax,1)
  4079a9:	0f 1f 80 00 00 00 00 	nopl   0x0(%rax)

00000000004079b0 <LookAhead>:
  4079b0:	48 89 6c 24 f8       	mov    %rbp,-0x8(%rsp)
  4079b5:	48 89 5c 24 f0       	mov    %rbx,-0x10(%rsp)
  4079ba:	48 89 f5             	mov    %rsi,%rbp
  4079bd:	48 81 ec e8 00 00 00 	sub    $0xe8,%rsp
  4079c4:	48 8b b7 98 00 00 00 	mov    0x98(%rdi),%rsi
  4079cb:	31 d2                	xor    %edx,%edx
  4079cd:	48 8b 46 08          	mov    0x8(%rsi),%rax
  4079d1:	8b 88 88 00 00 00    	mov    0x88(%rax),%ecx
  4079d7:	85 c9                	test   %ecx,%ecx
  4079d9:	74 40                	je     407a1b <LookAhead+0x6b>
  4079db:	c7 84 24 c8 00 00 00 	movl   $0x0,0xc8(%rsp)
  4079e2:	00 00 00 00 
  4079e6:	48 89 ac 24 c0 00 00 	mov    %rbp,0xc0(%rsp)
  4079ed:	00 
  4079ee:	48 8d 8c 24 c0 00 00 	lea    0xc0(%rsp),%rcx
  4079f5:	00 
  4079f6:	48 8b 7e 08          	mov    0x8(%rsi),%rdi
  4079fa:	ba 40 78 40 00       	mov    $0x407840,%edx
  4079ff:	48 89 e6             	mov    %rsp,%rsi
  407a02:	e8 f1 a4 ff ff       	callq  401ef8 <XPeekIfEvent@plt>
  407a07:	31 c0                	xor    %eax,%eax
  407a09:	48 89 e6             	mov    %rsp,%rsi
  407a0c:	48 89 ef             	mov    %rbp,%rdi
  407a0f:	e8 ac fd ff ff       	callq  4077c0 <CompareEvents>
  407a14:	31 d2                	xor    %edx,%edx
  407a16:	84 c0                	test   %al,%al
  407a18:	0f 95 c2             	setne  %dl
  407a1b:	48 8b 9c 24 d8 00 00 	mov    0xd8(%rsp),%rbx
  407a22:	00 
  407a23:	48 8b ac 24 e0 00 00 	mov    0xe0(%rsp),%rbp
  407a2a:	00 
  407a2b:	89 d0                	mov    %edx,%eax
  407a2d:	48 81 c4 e8 00 00 00 	add    $0xe8,%rsp
  407a34:	c3                   	retq   
  407a35:	0f 1f 44 00 00       	nopl   0x0(%rax,%rax,1)
  407a3a:	66 0f 1f 44 00 00    	nopw   0x0(%rax,%rax,1)

0000000000407a40 <NotifyThumb>:
  407a40:	48 89 5c 24 e8       	mov    %rbx,-0x18(%rsp)
  407a45:	48 89 6c 24 f0       	mov    %rbp,-0x10(%rsp)
  407a4a:	48 89 fb             	mov    %rdi,%rbx
  407a4d:	4c 89 64 24 f8       	mov    %r12,-0x8(%rsp)
  407a52:	48 83 ec 18          	sub    $0x18,%rsp
  407a56:	0f b6 87 80 01 00 00 	movzbl 0x180(%rdi),%eax
  407a5d:	49 89 d4             	mov    %rdx,%r12
  407a60:	48 89 cd             	mov    %rcx,%rbp
  407a63:	84 c0                	test   %al,%al
  407a65:	74 2b                	je     407a92 <NotifyThumb+0x52>
  407a67:	3c 43                	cmp    $0x43,%al
  407a69:	74 3a                	je     407aa5 <NotifyThumb+0x65>
  407a6b:	31 c0                	xor    %eax,%eax
  407a6d:	48 89 df             	mov    %rbx,%rdi
  407a70:	e8 3b ff ff ff       	callq  4079b0 <LookAhead>
  407a75:	84 c0                	test   %al,%al
  407a77:	75 19                	jne    407a92 <NotifyThumb+0x52>
  407a79:	8b 75 00             	mov    0x0(%rbp),%esi
  407a7c:	85 f6                	test   %esi,%esi
  407a7e:	74 40                	je     407ac0 <NotifyThumb+0x80>
  407a80:	49 8b 04 24          	mov    (%r12),%rax
  407a84:	0f b6 00             	movzbl (%rax),%eax
  407a87:	3c 55                	cmp    $0x55,%al
  407a89:	74 35                	je     407ac0 <NotifyThumb+0x80>
  407a8b:	7f 23                	jg     407ab0 <NotifyThumb+0x70>
  407a8d:	3c 4d                	cmp    $0x4d,%al
  407a8f:	90                   	nop
  407a90:	74 22                	je     407ab4 <NotifyThumb+0x74>
  407a92:	48 8b 1c 24          	mov    (%rsp),%rbx
  407a96:	48 8b 6c 24 08       	mov    0x8(%rsp),%rbp
  407a9b:	4c 8b 64 24 10       	mov    0x10(%rsp),%r12
  407aa0:	48 83 c4 18          	add    $0x18,%rsp
  407aa4:	c3                   	retq   
  407aa5:	80 bf 67 01 00 00 00 	cmpb   $0x0,0x167(%rdi)
  407aac:	75 bd                	jne    407a6b <NotifyThumb+0x2b>
  407aae:	eb e2                	jmp    407a92 <NotifyThumb+0x52>
  407ab0:	3c 6d                	cmp    $0x6d,%al
  407ab2:	75 45                	jne    407af9 <NotifyThumb+0xb9>
  407ab4:	80 bb 66 01 00 00 00 	cmpb   $0x0,0x166(%rbx)
  407abb:	74 d5                	je     407a92 <NotifyThumb+0x52>
  407abd:	0f 1f 00             	nopl   (%rax)
  407ac0:	80 bb 68 01 00 00 00 	cmpb   $0x0,0x168(%rbx)
  407ac7:	48 8d 93 6c 01 00 00 	lea    0x16c(%rbx),%rdx
  407ace:	74 20                	je     407af0 <NotifyThumb+0xb0>
  407ad0:	48 89 df             	mov    %rbx,%rdi
  407ad3:	48 8b 6c 24 08       	mov    0x8(%rsp),%rbp
  407ad8:	48 8b 1c 24          	mov    (%rsp),%rbx
  407adc:	4c 8b 64 24 10       	mov    0x10(%rsp),%r12
  407ae1:	be b4 a0 40 00       	mov    $0x40a0b4,%esi
  407ae6:	48 83 c4 18          	add    $0x18,%rsp
  407aea:	e9 69 a3 ff ff       	jmpq   401e58 <XtCallCallbacks@plt>
  407aef:	90                   	nop
  407af0:	48 8d 93 50 01 00 00 	lea    0x150(%rbx),%rdx
  407af7:	eb d7                	jmp    407ad0 <NotifyThumb+0x90>
  407af9:	3c 75                	cmp    $0x75,%al
  407afb:	75 95                	jne    407a92 <NotifyThumb+0x52>
  407afd:	0f 1f 00             	nopl   (%rax)
  407b00:	eb be                	jmp    407ac0 <NotifyThumb+0x80>
  407b02:	0f 1f 80 00 00 00 00 	nopl   0x0(%rax)
  407b09:	0f 1f 80 00 00 00 00 	nopl   0x0(%rax)

0000000000407b10 <FillArea>:
  407b10:	48 89 5c 24 e0       	mov    %rbx,-0x20(%rsp)
  407b15:	48 89 6c 24 e8       	mov    %rbp,-0x18(%rsp)
  407b1a:	48 89 fb             	mov    %rdi,%rbx
  407b1d:	4c 89 64 24 f0       	mov    %r12,-0x10(%rsp)
  407b22:	4c 89 6c 24 f8       	mov    %r13,-0x8(%rsp)
  407b27:	48 83 ec 28          	sub    $0x28,%rsp
  407b2b:	66 85 d2             	test   %dx,%dx
  407b2e:	89 cd                	mov    %ecx,%ebp
  407b30:	41 89 f4             	mov    %esi,%r12d
  407b33:	0f 88 ad 00 00 00    	js     407be6 <FillArea+0xd6>
  407b39:	48 8b 87 98 00 00 00 	mov    0x98(%rdi),%rax
  407b40:	41 89 d5             	mov    %edx,%r13d
  407b43:	48 8b 97 d8 00 00 00 	mov    0xd8(%rdi),%rdx
  407b4a:	66 41 29 f5          	sub    %si,%r13w
  407b4e:	48 8b b7 88 01 00 00 	mov    0x188(%rdi),%rsi
  407b55:	48 8b 78 08          	mov    0x8(%rax),%rdi
  407b59:	e8 0a a4 ff ff       	callq  401f68 <XSetForeground@plt>
  407b5e:	85 ed                	test   %ebp,%ebp
  407b60:	74 3f                	je     407ba1 <FillArea+0x91>
  407b62:	83 ed 01             	sub    $0x1,%ebp
  407b65:	0f 84 d5 00 00 00    	je     407c40 <FillArea+0x130>
  407b6b:	48 8b 83 98 00 00 00 	mov    0x98(%rbx),%rax
  407b72:	48 8b 93 d0 00 00 00 	mov    0xd0(%rbx),%rdx
  407b79:	48 8b b3 88 01 00 00 	mov    0x188(%rbx),%rsi
  407b80:	48 8b 6c 24 10       	mov    0x10(%rsp),%rbp
  407b85:	48 8b 5c 24 08       	mov    0x8(%rsp),%rbx
  407b8a:	4c 8b 64 24 18       	mov    0x18(%rsp),%r12
  407b8f:	48 8b 78 08          	mov    0x8(%rax),%rdi
  407b93:	4c 8b 6c 24 20       	mov    0x20(%rsp),%r13
  407b98:	48 83 c4 28          	add    $0x28,%rsp
  407b9c:	e9 c7 a3 ff ff       	jmpq   401f68 <XSetForeground@plt>
  407ba1:	8b bb e0 00 00 00    	mov    0xe0(%rbx),%edi
  407ba7:	85 ff                	test   %edi,%edi
  407ba9:	74 55                	je     407c00 <FillArea+0xf0>
  407bab:	48 8b 83 98 00 00 00 	mov    0x98(%rbx),%rax
  407bb2:	44 0f b7 83 62 01 00 	movzwl 0x162(%rbx),%r8d
  407bb9:	00 
  407bba:	41 0f bf cc          	movswl %r12w,%ecx
  407bbe:	0f bf 93 70 01 00 00 	movswl 0x170(%rbx),%edx
  407bc5:	48 8b b3 a8 00 00 00 	mov    0xa8(%rbx),%rsi
  407bcc:	45 0f b7 cd          	movzwl %r13w,%r9d
  407bd0:	48 8b 78 08          	mov    0x8(%rax),%rdi
  407bd4:	c7 04 24 00 00 00 00 	movl   $0x0,(%rsp)
  407bdb:	41 83 e8 01          	sub    $0x1,%r8d
  407bdf:	e8 84 a4 ff ff       	callq  402068 <XClearArea@plt>
  407be4:	eb 85                	jmp    407b6b <FillArea+0x5b>
  407be6:	48 8b 5c 24 08       	mov    0x8(%rsp),%rbx
  407beb:	48 8b 6c 24 10       	mov    0x10(%rsp),%rbp
  407bf0:	4c 8b 64 24 18       	mov    0x18(%rsp),%r12
  407bf5:	4c 8b 6c 24 20       	mov    0x20(%rsp),%r13
  407bfa:	48 83 c4 28          	add    $0x28,%rsp
  407bfe:	c3                   	retq   
  407bff:	90                   	nop
  407c00:	48 8b 83 98 00 00 00 	mov    0x98(%rbx),%rax
  407c07:	44 0f b7 8b 62 01 00 	movzwl 0x162(%rbx),%r9d
  407c0e:	00 
  407c0f:	41 0f bf d4          	movswl %r12w,%edx
  407c13:	0f bf 8b 72 01 00 00 	movswl 0x172(%rbx),%ecx
  407c1a:	48 8b b3 a8 00 00 00 	mov    0xa8(%rbx),%rsi
  407c21:	45 0f b7 c5          	movzwl %r13w,%r8d
  407c25:	48 8b 78 08          	mov    0x8(%rax),%rdi
  407c29:	c7 04 24 00 00 00 00 	movl   $0x0,(%rsp)
  407c30:	41 83 e9 01          	sub    $0x1,%r9d
  407c34:	e8 2f a4 ff ff       	callq  402068 <XClearArea@plt>
  407c39:	e9 2d ff ff ff       	jmpq   407b6b <FillArea+0x5b>
  407c3e:	66 90                	xchg   %ax,%ax
  407c40:	44 8b 83 e0 00 00 00 	mov    0xe0(%rbx),%r8d
  407c47:	45 85 c0             	test   %r8d,%r8d
  407c4a:	75 40                	jne    407c8c <FillArea+0x17c>
  407c4c:	48 8b 83 98 00 00 00 	mov    0x98(%rbx),%rax
  407c53:	44 0f bf 83 72 01 00 	movswl 0x172(%rbx),%r8d
  407c5a:	00 
  407c5b:	41 0f bf cc          	movswl %r12w,%ecx
  407c5f:	48 8b 93 88 01 00 00 	mov    0x188(%rbx),%rdx
  407c66:	48 8b b3 a8 00 00 00 	mov    0xa8(%rbx),%rsi
  407c6d:	45 0f b7 cd          	movzwl %r13w,%r9d
  407c71:	48 8b 78 08          	mov    0x8(%rax),%rdi
  407c75:	0f b7 83 62 01 00 00 	movzwl 0x162(%rbx),%eax
  407c7c:	83 e8 01             	sub    $0x1,%eax
  407c7f:	89 04 24             	mov    %eax,(%rsp)
  407c82:	e8 f1 a2 ff ff       	callq  401f78 <XFillRectangle@plt>
  407c87:	e9 df fe ff ff       	jmpq   407b6b <FillArea+0x5b>
  407c8c:	48 8b 83 98 00 00 00 	mov    0x98(%rbx),%rax
  407c93:	44 0f b7 8b 62 01 00 	movzwl 0x162(%rbx),%r9d
  407c9a:	00 
  407c9b:	45 0f bf c4          	movswl %r12w,%r8d
  407c9f:	0f bf 8b 70 01 00 00 	movswl 0x170(%rbx),%ecx
  407ca6:	48 8b 93 88 01 00 00 	mov    0x188(%rbx),%rdx
  407cad:	48 8b b3 a8 00 00 00 	mov    0xa8(%rbx),%rsi
  407cb4:	48 8b 78 08          	mov    0x8(%rax),%rdi
  407cb8:	41 0f b7 c5          	movzwl %r13w,%eax
  407cbc:	41 83 e9 01          	sub    $0x1,%r9d
  407cc0:	89 04 24             	mov    %eax,(%rsp)
  407cc3:	e8 b0 a2 ff ff       	callq  401f78 <XFillRectangle@plt>
  407cc8:	e9 9e fe ff ff       	jmpq   407b6b <FillArea+0x5b>
  407ccd:	0f 1f 00             	nopl   (%rax)

0000000000407cd0 <PaintThumb>:
  407cd0:	48 89 5c 24 d8       	mov    %rbx,-0x28(%rsp)
  407cd5:	48 89 6c 24 e0       	mov    %rbp,-0x20(%rsp)
  407cda:	48 89 fb             	mov    %rdi,%rbx
  407cdd:	4c 89 64 24 e8       	mov    %r12,-0x18(%rsp)
  407ce2:	4c 89 6c 24 f0       	mov    %r13,-0x10(%rsp)
  407ce7:	4c 89 74 24 f8       	mov    %r14,-0x8(%rsp)
  407cec:	48 83 ec 28          	sub    $0x28,%rsp
  407cf0:	44 8b 8f e0 00 00 00 	mov    0xe0(%rdi),%r9d
  407cf7:	44 0f b7 b7 90 01 00 	movzwl 0x190(%rdi),%r14d
  407cfe:	00 
  407cff:	0f b7 af 92 01 00 00 	movzwl 0x192(%rdi),%ebp
  407d06:	45 85 c9             	test   %r9d,%r9d
  407d09:	75 65                	jne    407d70 <PaintThumb+0xa0>
  407d0b:	0f b7 87 6a 01 00 00 	movzwl 0x16a(%rdi),%eax
  407d12:	66 85 c0             	test   %ax,%ax
  407d15:	0f 84 75 01 00 00    	je     407e90 <PaintThumb+0x1c0>
  407d1b:	66 83 f8 02          	cmp    $0x2,%ax
  407d1f:	0f 84 7d 02 00 00    	je     407fa2 <PaintThumb+0x2d2>
  407d25:	66 83 e8 01          	sub    $0x1,%ax
  407d29:	0f 85 a8 00 00 00    	jne    407dd7 <PaintThumb+0x107>
  407d2f:	0f b7 8f 70 01 00 00 	movzwl 0x170(%rdi),%ecx
  407d36:	0f b7 97 60 01 00 00 	movzwl 0x160(%rdi),%edx
  407d3d:	0f bf c1             	movswl %cx,%eax
  407d40:	f2 0f 2a c8          	cvtsi2sd %eax,%xmm1
  407d44:	0f b7 c2             	movzwl %dx,%eax
  407d47:	66 03 97 64 01 00 00 	add    0x164(%rdi),%dx
  407d4e:	f2 0f 2a c0          	cvtsi2sd %eax,%xmm0
  407d52:	44 8d 2c 0a          	lea    (%rdx,%rcx,1),%r13d
  407d56:	f2 0f 59 87 30 01 00 	mulsd  0x130(%rdi),%xmm0
  407d5d:	00 
  407d5e:	f2 0f 58 c8          	addsd  %xmm0,%xmm1
  407d62:	f2 44 0f 2c e1       	cvttsd2si %xmm1,%r12d
  407d67:	eb 6e                	jmp    407dd7 <PaintThumb+0x107>
  407d69:	0f 1f 80 00 00 00 00 	nopl   0x0(%rax)
  407d70:	0f b7 87 6a 01 00 00 	movzwl 0x16a(%rdi),%eax
  407d77:	66 85 c0             	test   %ax,%ax
  407d7a:	0f 85 c3 00 00 00    	jne    407e43 <PaintThumb+0x173>
  407d80:	0f b7 87 60 01 00 00 	movzwl 0x160(%rdi),%eax
  407d87:	f2 0f 2a d0          	cvtsi2sd %eax,%xmm2
  407d8b:	0f bf 87 72 01 00 00 	movswl 0x172(%rdi),%eax
  407d92:	f2 0f 2a c0          	cvtsi2sd %eax,%xmm0
  407d96:	66 0f 28 ca          	movapd %xmm2,%xmm1
  407d9a:	f2 0f 59 8f 30 01 00 	mulsd  0x130(%rdi),%xmm1
  407da1:	00 
  407da2:	f2 0f 5c c1          	subsd  %xmm1,%xmm0
  407da6:	f2 0f 59 93 38 01 00 	mulsd  0x138(%rbx),%xmm2
  407dad:	00 
  407dae:	f2 44 0f 2c e0       	cvttsd2si %xmm0,%r12d
  407db3:	0f b7 b3 64 01 00 00 	movzwl 0x164(%rbx),%esi
  407dba:	0f b7 d6             	movzwl %si,%edx
  407dbd:	f2 0f 2c c2          	cvttsd2si %xmm2,%eax
  407dc1:	45 8d 2c 04          	lea    (%r12,%rax,1),%r13d
  407dc5:	41 0f bf c4          	movswl %r12w,%eax
  407dc9:	01 d0                	add    %edx,%eax
  407dcb:	41 0f bf cd          	movswl %r13w,%ecx
  407dcf:	39 c1                	cmp    %eax,%ecx
  407dd1:	7d 04                	jge    407dd7 <PaintThumb+0x107>
  407dd3:	45 8d 2c 34          	lea    (%r12,%rsi,1),%r13d
  407dd7:	44 89 e8             	mov    %r13d,%eax
  407dda:	66 44 89 a3 90 01 00 	mov    %r12w,0x190(%rbx)
  407de1:	00 
  407de2:	48 89 df             	mov    %rbx,%rdi
  407de5:	66 44 29 e0          	sub    %r12w,%ax
  407de9:	66 89 83 92 01 00 00 	mov    %ax,0x192(%rbx)
  407df0:	e8 93 a0 ff ff       	callq  401e88 <XtWindowOfObject@plt>
  407df5:	48 85 c0             	test   %rax,%rax
  407df8:	74 2c                	je     407e26 <PaintThumb+0x156>
  407dfa:	66 45 39 f4          	cmp    %r14w,%r12w
  407dfe:	0f 8c 3e 01 00 00    	jl     407f42 <PaintThumb+0x272>
  407e04:	66 45 39 f4          	cmp    %r14w,%r12w
  407e08:	41 8d 2c 2e          	lea    (%r14,%rbp,1),%ebp
  407e0c:	0f 8f 0e 01 00 00    	jg     407f20 <PaintThumb+0x250>
  407e12:	66 41 39 ed          	cmp    %bp,%r13w
  407e16:	0f 8c e4 00 00 00    	jl     407f00 <PaintThumb+0x230>
  407e1c:	66 41 39 ed          	cmp    %bp,%r13w
  407e20:	0f 8f 9a 00 00 00    	jg     407ec0 <PaintThumb+0x1f0>
  407e26:	48 8b 1c 24          	mov    (%rsp),%rbx
  407e2a:	48 8b 6c 24 08       	mov    0x8(%rsp),%rbp
  407e2f:	4c 8b 64 24 10       	mov    0x10(%rsp),%r12
  407e34:	4c 8b 6c 24 18       	mov    0x18(%rsp),%r13
  407e39:	4c 8b 74 24 20       	mov    0x20(%rsp),%r14
  407e3e:	48 83 c4 28          	add    $0x28,%rsp
  407e42:	c3                   	retq   
  407e43:	66 83 f8 02          	cmp    $0x2,%ax
  407e47:	0f 84 1b 01 00 00    	je     407f68 <PaintThumb+0x298>
  407e4d:	66 83 e8 01          	sub    $0x1,%ax
  407e51:	75 84                	jne    407dd7 <PaintThumb+0x107>
  407e53:	0f b7 8f 60 01 00 00 	movzwl 0x160(%rdi),%ecx
  407e5a:	0f bf 97 72 01 00 00 	movswl 0x172(%rdi),%edx
  407e61:	0f b7 87 64 01 00 00 	movzwl 0x164(%rdi),%eax
  407e68:	f2 0f 2a c1          	cvtsi2sd %ecx,%xmm0
  407e6c:	41 89 d4             	mov    %edx,%r12d
  407e6f:	01 d0                	add    %edx,%eax
  407e71:	66 41 29 cc          	sub    %cx,%r12w
  407e75:	f2 0f 2a c8          	cvtsi2sd %eax,%xmm1
  407e79:	f2 0f 59 87 30 01 00 	mulsd  0x130(%rdi),%xmm0
  407e80:	00 
  407e81:	f2 0f 5c c8          	subsd  %xmm0,%xmm1
  407e85:	f2 44 0f 2c e9       	cvttsd2si %xmm1,%r13d
  407e8a:	e9 48 ff ff ff       	jmpq   407dd7 <PaintThumb+0x107>
  407e8f:	90                   	nop
  407e90:	0f b7 87 60 01 00 00 	movzwl 0x160(%rdi),%eax
  407e97:	f2 0f 2a d0          	cvtsi2sd %eax,%xmm2
  407e9b:	0f bf 87 70 01 00 00 	movswl 0x170(%rdi),%eax
  407ea2:	f2 0f 2a c0          	cvtsi2sd %eax,%xmm0
  407ea6:	66 0f 28 ca          	movapd %xmm2,%xmm1
  407eaa:	f2 0f 59 8f 30 01 00 	mulsd  0x130(%rdi),%xmm1
  407eb1:	00 
  407eb2:	f2 0f 58 c1          	addsd  %xmm1,%xmm0
  407eb6:	e9 eb fe ff ff       	jmpq   407da6 <PaintThumb+0xd6>
  407ebb:	0f 1f 44 00 00       	nopl   0x0(%rax,%rax,1)
  407ec0:	66 41 39 ec          	cmp    %bp,%r12w
  407ec4:	41 0f bf d5          	movswl %r13w,%edx
  407ec8:	48 89 df             	mov    %rbx,%rdi
  407ecb:	41 0f 4d ec          	cmovge %r12d,%ebp
  407ecf:	48 8b 1c 24          	mov    (%rsp),%rbx
  407ed3:	4c 8b 64 24 10       	mov    0x10(%rsp),%r12
  407ed8:	0f bf f5             	movswl %bp,%esi
  407edb:	4c 8b 6c 24 18       	mov    0x18(%rsp),%r13
  407ee0:	48 8b 6c 24 08       	mov    0x8(%rsp),%rbp
  407ee5:	4c 8b 74 24 20       	mov    0x20(%rsp),%r14
  407eea:	b9 01 00 00 00       	mov    $0x1,%ecx
  407eef:	31 c0                	xor    %eax,%eax
  407ef1:	48 83 c4 28          	add    $0x28,%rsp
  407ef5:	e9 16 fc ff ff       	jmpq   407b10 <FillArea>
  407efa:	66 0f 1f 44 00 00    	nopw   0x0(%rax,%rax,1)
  407f00:	66 45 39 f5          	cmp    %r14w,%r13w
  407f04:	0f bf d5             	movswl %bp,%edx
  407f07:	48 89 df             	mov    %rbx,%rdi
  407f0a:	45 0f 4d f5          	cmovge %r13d,%r14d
  407f0e:	31 c9                	xor    %ecx,%ecx
  407f10:	31 c0                	xor    %eax,%eax
  407f12:	41 0f bf f6          	movswl %r14w,%esi
  407f16:	e8 f5 fb ff ff       	callq  407b10 <FillArea>
  407f1b:	e9 fc fe ff ff       	jmpq   407e1c <PaintThumb+0x14c>
  407f20:	66 41 39 ec          	cmp    %bp,%r12w
  407f24:	89 ea                	mov    %ebp,%edx
  407f26:	41 0f bf f6          	movswl %r14w,%esi
  407f2a:	41 0f 4e d4          	cmovle %r12d,%edx
  407f2e:	48 89 df             	mov    %rbx,%rdi
  407f31:	31 c9                	xor    %ecx,%ecx
  407f33:	0f bf d2             	movswl %dx,%edx
  407f36:	31 c0                	xor    %eax,%eax
  407f38:	e8 d3 fb ff ff       	callq  407b10 <FillArea>
  407f3d:	e9 d0 fe ff ff       	jmpq   407e12 <PaintThumb+0x142>
  407f42:	66 45 39 f5          	cmp    %r14w,%r13w
  407f46:	44 89 f2             	mov    %r14d,%edx
  407f49:	41 0f bf f4          	movswl %r12w,%esi
  407f4d:	41 0f 4e d5          	cmovle %r13d,%edx
  407f51:	b9 01 00 00 00       	mov    $0x1,%ecx
  407f56:	48 89 df             	mov    %rbx,%rdi
  407f59:	0f bf d2             	movswl %dx,%edx
  407f5c:	31 c0                	xor    %eax,%eax
  407f5e:	e8 ad fb ff ff       	callq  407b10 <FillArea>
  407f63:	e9 9c fe ff ff       	jmpq   407e04 <PaintThumb+0x134>
  407f68:	0f b7 97 72 01 00 00 	movzwl 0x172(%rdi),%edx
  407f6f:	0f bf c2             	movswl %dx,%eax
  407f72:	41 89 d5             	mov    %edx,%r13d
  407f75:	66 44 03 af 64 01 00 	add    0x164(%rdi),%r13w
  407f7c:	00 
  407f7d:	f2 0f 2a c8          	cvtsi2sd %eax,%xmm1
  407f81:	0f b7 87 60 01 00 00 	movzwl 0x160(%rdi),%eax
  407f88:	f2 0f 2a c0          	cvtsi2sd %eax,%xmm0
  407f8c:	f2 0f 59 87 30 01 00 	mulsd  0x130(%rdi),%xmm0
  407f93:	00 
  407f94:	f2 0f 5c c8          	subsd  %xmm0,%xmm1
  407f98:	f2 44 0f 2c e1       	cvttsd2si %xmm1,%r12d
  407f9d:	e9 35 fe ff ff       	jmpq   407dd7 <PaintThumb+0x107>
  407fa2:	44 0f b7 a7 70 01 00 	movzwl 0x170(%rdi),%r12d
  407fa9:	00 
  407faa:	0f b7 87 64 01 00 00 	movzwl 0x164(%rdi),%eax
  407fb1:	41 0f bf d4          	movswl %r12w,%edx
  407fb5:	01 d0                	add    %edx,%eax
  407fb7:	f2 0f 2a c8          	cvtsi2sd %eax,%xmm1
  407fbb:	0f b7 87 60 01 00 00 	movzwl 0x160(%rdi),%eax
  407fc2:	f2 0f 2a c0          	cvtsi2sd %eax,%xmm0
  407fc6:	f2 0f 59 87 30 01 00 	mulsd  0x130(%rdi),%xmm0
  407fcd:	00 
  407fce:	f2 0f 58 c8          	addsd  %xmm0,%xmm1
  407fd2:	f2 44 0f 2c e9       	cvttsd2si %xmm1,%r13d
  407fd7:	e9 fb fd ff ff       	jmpq   407dd7 <PaintThumb+0x107>
  407fdc:	0f 1f 40 00          	nopl   0x0(%rax)

0000000000407fe0 <SetDimensions>:
  407fe0:	55                   	push   %rbp
  407fe1:	48 89 fd             	mov    %rdi,%rbp
  407fe4:	53                   	push   %rbx
  407fe5:	48 83 ec 08          	sub    $0x8,%rsp
  407fe9:	48 8b 9f 98 01 00 00 	mov    0x198(%rdi),%rbx
  407ff0:	48 8b bf 28 01 00 00 	mov    0x128(%rdi),%rdi
  407ff7:	e8 2c 9f ff ff       	callq  401f28 <strlen@plt>
  407ffc:	0f bf 53 4a          	movswl 0x4a(%rbx),%edx
  408000:	89 c6                	mov    %eax,%esi
  408002:	0f bf 43 4c          	movswl 0x4c(%rbx),%eax
  408006:	01 d0                	add    %edx,%eax
  408008:	89 05 c2 5e 20 00    	mov    %eax,0x205ec2(%rip)        # 60ded0 <font_height>
  40800e:	0f bf 53 46          	movswl 0x46(%rbx),%edx
  408012:	0f bf 43 44          	movswl 0x44(%rbx),%eax
  408016:	29 c2                	sub    %eax,%edx
  408018:	89 15 ae 5e 20 00    	mov    %edx,0x205eae(%rip)        # 60decc <font_width>
  40801e:	44 8b 95 e0 00 00 00 	mov    0xe0(%rbp),%r10d
  408025:	45 85 d2             	test   %r10d,%r10d
  408028:	0f 85 e2 00 00 00    	jne    408110 <SetDimensions+0x130>
  40802e:	48 8b 85 28 01 00 00 	mov    0x128(%rbp),%rax
  408035:	80 38 00             	cmpb   $0x0,(%rax)
  408038:	0f 84 b7 01 00 00    	je     4081f5 <SetDimensions+0x215>
  40803e:	0f af d6             	imul   %esi,%edx
  408041:	66 c7 85 72 01 00 00 	movw   $0x5,0x172(%rbp)
  408048:	05 00 
  40804a:	8d 82 c8 00 00 00    	lea    0xc8(%rdx),%eax
  408050:	66 89 85 70 01 00 00 	mov    %ax,0x170(%rbp)
  408057:	66 89 85 90 01 00 00 	mov    %ax,0x190(%rbp)
  40805e:	0f b7 45 34          	movzwl 0x34(%rbp),%eax
  408062:	66 85 c0             	test   %ax,%ax
  408065:	0f 85 d9 01 00 00    	jne    408244 <SetDimensions+0x264>
  40806b:	0f b7 85 60 01 00 00 	movzwl 0x160(%rbp),%eax
  408072:	83 c0 46             	add    $0x46,%eax
  408075:	66 03 85 70 01 00 00 	add    0x170(%rbp),%ax
  40807c:	66 89 45 34          	mov    %ax,0x34(%rbp)
  408080:	0f b7 45 36          	movzwl 0x36(%rbp),%eax
  408084:	66 85 c0             	test   %ax,%ax
  408087:	0f 85 d5 01 00 00    	jne    408262 <SetDimensions+0x282>
  40808d:	0f b7 85 62 01 00 00 	movzwl 0x162(%rbp),%eax
  408094:	83 c0 0a             	add    $0xa,%eax
  408097:	66 89 45 36          	mov    %ax,0x36(%rbp)
  40809b:	8b 0d 2f 5e 20 00    	mov    0x205e2f(%rip),%ecx        # 60ded0 <font_height>
  4080a1:	8d 41 05             	lea    0x5(%rcx),%eax
  4080a4:	89 05 1a 5e 20 00    	mov    %eax,0x205e1a(%rip)        # 60dec4 <hlpos>
  4080aa:	0f b7 55 36          	movzwl 0x36(%rbp),%edx
  4080ae:	89 c8                	mov    %ecx,%eax
  4080b0:	c1 e8 1f             	shr    $0x1f,%eax
  4080b3:	01 c8                	add    %ecx,%eax
  4080b5:	d1 f8                	sar    %eax
  4080b7:	66 d1 ea             	shr    %dx
  4080ba:	0f b7 d2             	movzwl %dx,%edx
  4080bd:	01 c2                	add    %eax,%edx
  4080bf:	89 15 ff 5d 20 00    	mov    %edx,0x205dff(%rip)        # 60dec4 <hlpos>
  4080c5:	f2 0f 10 95 40 01 00 	movsd  0x140(%rbp),%xmm2
  4080cc:	00 
  4080cd:	0f b7 85 64 01 00 00 	movzwl 0x164(%rbp),%eax
  4080d4:	f2 0f 10 8d 50 01 00 	movsd  0x150(%rbp),%xmm1
  4080db:	00 
  4080dc:	c6 85 80 01 00 00 00 	movb   $0x0,0x180(%rbp)
  4080e3:	f2 0f 10 85 48 01 00 	movsd  0x148(%rbp),%xmm0
  4080ea:	00 
  4080eb:	f2 0f 5c ca          	subsd  %xmm2,%xmm1
  4080ef:	f2 0f 5c c2          	subsd  %xmm2,%xmm0
  4080f3:	66 89 85 92 01 00 00 	mov    %ax,0x192(%rbp)
  4080fa:	f2 0f 5e c8          	divsd  %xmm0,%xmm1
  4080fe:	f2 0f 11 8d 30 01 00 	movsd  %xmm1,0x130(%rbp)
  408105:	00 
  408106:	48 83 c4 08          	add    $0x8,%rsp
  40810a:	5b                   	pop    %rbx
  40810b:	5d                   	pop    %rbp
  40810c:	c3                   	retq   
  40810d:	0f 1f 00             	nopl   (%rax)
  408110:	48 8b 85 28 01 00 00 	mov    0x128(%rbp),%rax
  408117:	80 38 00             	cmpb   $0x0,(%rax)
  40811a:	0f 84 80 00 00 00    	je     4081a0 <SetDimensions+0x1c0>
  408120:	0f b7 45 34          	movzwl 0x34(%rbp),%eax
  408124:	66 85 c0             	test   %ax,%ax
  408127:	0f 85 67 01 00 00    	jne    408294 <SetDimensions+0x2b4>
  40812d:	0f af d6             	imul   %esi,%edx
  408130:	0f b7 4d 36          	movzwl 0x36(%rbp),%ecx
  408134:	8d 42 32             	lea    0x32(%rdx),%eax
  408137:	66 85 c9             	test   %cx,%cx
  40813a:	66 89 45 34          	mov    %ax,0x34(%rbp)
  40813e:	0f 85 67 01 00 00    	jne    4082ab <SetDimensions+0x2cb>
  408144:	0f b7 85 72 01 00 00 	movzwl 0x172(%rbp),%eax
  40814b:	83 c0 28             	add    $0x28,%eax
  40814e:	66 89 45 36          	mov    %ax,0x36(%rbp)
  408152:	8b 05 78 5d 20 00    	mov    0x205d78(%rip),%eax        # 60ded0 <font_height>
  408158:	8d 14 c5 00 00 00 00 	lea    0x0(,%rax,8),%edx
  40815f:	29 c2                	sub    %eax,%edx
  408161:	66 03 95 60 01 00 00 	add    0x160(%rbp),%dx
  408168:	0f b7 85 62 01 00 00 	movzwl 0x162(%rbp),%eax
  40816f:	66 89 95 72 01 00 00 	mov    %dx,0x172(%rbp)
  408176:	66 d1 e8             	shr    %ax
  408179:	0f af 35 4c 5d 20 00 	imul   0x205d4c(%rip),%esi        # 60decc <font_width>
  408180:	66 89 95 90 01 00 00 	mov    %dx,0x190(%rbp)
  408187:	66 29 c6             	sub    %ax,%si
  40818a:	66 89 b5 70 01 00 00 	mov    %si,0x170(%rbp)
  408191:	c7 05 2d 5d 20 00 05 	movl   $0x5,0x205d2d(%rip)        # 60dec8 <vlpos>
  408198:	00 00 00 
  40819b:	e9 25 ff ff ff       	jmpq   4080c5 <SetDimensions+0xe5>
  4081a0:	0f b7 45 34          	movzwl 0x34(%rbp),%eax
  4081a4:	66 85 c0             	test   %ax,%ax
  4081a7:	0f 85 23 01 00 00    	jne    4082d0 <SetDimensions+0x2f0>
  4081ad:	0f b7 85 62 01 00 00 	movzwl 0x162(%rbp),%eax
  4081b4:	66 89 45 34          	mov    %ax,0x34(%rbp)
  4081b8:	0f b7 45 36          	movzwl 0x36(%rbp),%eax
  4081bc:	66 85 c0             	test   %ax,%ax
  4081bf:	0f 85 1f 01 00 00    	jne    4082e4 <SetDimensions+0x304>
  4081c5:	0f b7 95 60 01 00 00 	movzwl 0x160(%rbp),%edx
  4081cc:	0f b7 85 64 01 00 00 	movzwl 0x164(%rbp),%eax
  4081d3:	01 d0                	add    %edx,%eax
  4081d5:	66 89 45 36          	mov    %ax,0x36(%rbp)
  4081d9:	66 89 95 72 01 00 00 	mov    %dx,0x172(%rbp)
  4081e0:	66 c7 85 70 01 00 00 	movw   $0x0,0x170(%rbp)
  4081e7:	00 00 
  4081e9:	66 89 95 90 01 00 00 	mov    %dx,0x190(%rbp)
  4081f0:	e9 d0 fe ff ff       	jmpq   4080c5 <SetDimensions+0xe5>
  4081f5:	0f b7 45 34          	movzwl 0x34(%rbp),%eax
  4081f9:	66 c7 85 70 01 00 00 	movw   $0x0,0x170(%rbp)
  408200:	00 00 
  408202:	66 c7 85 72 01 00 00 	movw   $0x0,0x172(%rbp)
  408209:	00 00 
  40820b:	66 c7 85 90 01 00 00 	movw   $0x0,0x190(%rbp)
  408212:	00 00 
  408214:	66 85 c0             	test   %ax,%ax
  408217:	75 58                	jne    408271 <SetDimensions+0x291>
  408219:	0f b7 85 60 01 00 00 	movzwl 0x160(%rbp),%eax
  408220:	66 03 85 64 01 00 00 	add    0x164(%rbp),%ax
  408227:	66 89 45 34          	mov    %ax,0x34(%rbp)
  40822b:	0f b7 45 36          	movzwl 0x36(%rbp),%eax
  40822f:	66 85 c0             	test   %ax,%ax
  408232:	75 54                	jne    408288 <SetDimensions+0x2a8>
  408234:	0f b7 85 62 01 00 00 	movzwl 0x162(%rbp),%eax
  40823b:	66 89 45 36          	mov    %ax,0x36(%rbp)
  40823f:	e9 81 fe ff ff       	jmpq   4080c5 <SetDimensions+0xe5>
  408244:	66 2b 85 70 01 00 00 	sub    0x170(%rbp),%ax
  40824b:	83 e8 46             	sub    $0x46,%eax
  40824e:	66 89 85 60 01 00 00 	mov    %ax,0x160(%rbp)
  408255:	0f b7 45 36          	movzwl 0x36(%rbp),%eax
  408259:	66 85 c0             	test   %ax,%ax
  40825c:	0f 84 2b fe ff ff    	je     40808d <SetDimensions+0xad>
  408262:	83 e8 0a             	sub    $0xa,%eax
  408265:	66 89 85 62 01 00 00 	mov    %ax,0x162(%rbp)
  40826c:	e9 2a fe ff ff       	jmpq   40809b <SetDimensions+0xbb>
  408271:	66 2b 85 64 01 00 00 	sub    0x164(%rbp),%ax
  408278:	66 89 85 60 01 00 00 	mov    %ax,0x160(%rbp)
  40827f:	0f b7 45 36          	movzwl 0x36(%rbp),%eax
  408283:	66 85 c0             	test   %ax,%ax
  408286:	74 ac                	je     408234 <SetDimensions+0x254>
  408288:	66 89 85 62 01 00 00 	mov    %ax,0x162(%rbp)
  40828f:	e9 31 fe ff ff       	jmpq   4080c5 <SetDimensions+0xe5>
  408294:	0f b7 4d 36          	movzwl 0x36(%rbp),%ecx
  408298:	83 e8 3c             	sub    $0x3c,%eax
  40829b:	66 89 85 62 01 00 00 	mov    %ax,0x162(%rbp)
  4082a2:	66 85 c9             	test   %cx,%cx
  4082a5:	0f 84 99 fe ff ff    	je     408144 <SetDimensions+0x164>
  4082ab:	8b 05 1f 5c 20 00    	mov    0x205c1f(%rip),%eax        # 60ded0 <font_height>
  4082b1:	8d 14 c5 00 00 00 00 	lea    0x0(,%rax,8),%edx
  4082b8:	29 c2                	sub    %eax,%edx
  4082ba:	66 29 d1             	sub    %dx,%cx
  4082bd:	8d 41 d8             	lea    -0x28(%rcx),%eax
  4082c0:	66 89 85 60 01 00 00 	mov    %ax,0x160(%rbp)
  4082c7:	e9 86 fe ff ff       	jmpq   408152 <SetDimensions+0x172>
  4082cc:	0f 1f 40 00          	nopl   0x0(%rax)
  4082d0:	66 89 85 62 01 00 00 	mov    %ax,0x162(%rbp)
  4082d7:	0f b7 45 36          	movzwl 0x36(%rbp),%eax
  4082db:	66 85 c0             	test   %ax,%ax
  4082de:	0f 84 e1 fe ff ff    	je     4081c5 <SetDimensions+0x1e5>
  4082e4:	66 2b 85 64 01 00 00 	sub    0x164(%rbp),%ax
  4082eb:	89 c2                	mov    %eax,%edx
  4082ed:	66 89 85 60 01 00 00 	mov    %ax,0x160(%rbp)
  4082f4:	e9 e0 fe ff ff       	jmpq   4081d9 <SetDimensions+0x1f9>
  4082f9:	0f 1f 80 00 00 00 00 	nopl   0x0(%rax)

0000000000408300 <PaintValue>:
  408300:	48 89 6c 24 f0       	mov    %rbp,-0x10(%rsp)
  408305:	48 89 5c 24 e8       	mov    %rbx,-0x18(%rsp)
  40830a:	48 89 fd             	mov    %rdi,%rbp
  40830d:	4c 89 64 24 f8       	mov    %r12,-0x8(%rsp)
  408312:	48 81 ec b8 00 00 00 	sub    $0xb8,%rsp
  408319:	48 8b 87 28 01 00 00 	mov    0x128(%rdi),%rax
  408320:	80 38 00             	cmpb   $0x0,(%rax)
  408323:	75 20                	jne    408345 <PaintValue+0x45>
  408325:	48 8b 9c 24 a0 00 00 	mov    0xa0(%rsp),%rbx
  40832c:	00 
  40832d:	48 8b ac 24 a8 00 00 	mov    0xa8(%rsp),%rbp
  408334:	00 
  408335:	4c 8b a4 24 b0 00 00 	mov    0xb0(%rsp),%r12
  40833c:	00 
  40833d:	48 81 c4 b8 00 00 00 	add    $0xb8,%rsp
  408344:	c3                   	retq   
  408345:	48 8b 87 98 00 00 00 	mov    0x98(%rdi),%rax
  40834c:	48 8b b7 88 01 00 00 	mov    0x188(%rdi),%rsi
  408353:	31 d2                	xor    %edx,%edx
  408355:	48 8b 78 08          	mov    0x8(%rax),%rdi
  408359:	e8 da 9a ff ff       	callq  401e38 <XSetFillStyle@plt>
  40835e:	80 bd 68 01 00 00 01 	cmpb   $0x1,0x168(%rbp)
  408365:	0f 84 a5 01 00 00    	je     408510 <PaintValue+0x210>
  40836b:	4c 8d 64 24 10       	lea    0x10(%rsp),%r12
  408370:	f2 0f 10 85 50 01 00 	movsd  0x150(%rbp),%xmm0
  408377:	00 
  408378:	be 9f a1 40 00       	mov    $0x40a19f,%esi
  40837d:	b8 01 00 00 00       	mov    $0x1,%eax
  408382:	4c 89 e7             	mov    %r12,%rdi
  408385:	e8 0e 9c ff ff       	callq  401f98 <sprintf@plt>
  40838a:	44 8b 9d e0 00 00 00 	mov    0xe0(%rbp),%r11d
  408391:	45 85 db             	test   %r11d,%r11d
  408394:	0f 85 b6 00 00 00    	jne    408450 <PaintValue+0x150>
  40839a:	48 8b 85 98 00 00 00 	mov    0x98(%rbp),%rax
  4083a1:	0f bf 95 70 01 00 00 	movswl 0x170(%rbp),%edx
  4083a8:	41 b8 32 00 00 00    	mov    $0x32,%r8d
  4083ae:	44 0f b7 4d 36       	movzwl 0x36(%rbp),%r9d
  4083b3:	0f bf 8d 72 01 00 00 	movswl 0x172(%rbp),%ecx
  4083ba:	48 8b b5 a8 00 00 00 	mov    0xa8(%rbp),%rsi
  4083c1:	48 8b 78 08          	mov    0x8(%rax),%rdi
  4083c5:	c7 04 24 00 00 00 00 	movl   $0x0,(%rsp)
  4083cc:	81 ea 8c 00 00 00    	sub    $0x8c,%edx
  4083d2:	e8 91 9c ff ff       	callq  402068 <XClearArea@plt>
  4083d7:	4d 89 e0             	mov    %r12,%r8
  4083da:	41 8b 00             	mov    (%r8),%eax
  4083dd:	49 83 c0 04          	add    $0x4,%r8
  4083e1:	8d 90 ff fe fe fe    	lea    -0x1010101(%rax),%edx
  4083e7:	f7 d0                	not    %eax
  4083e9:	21 c2                	and    %eax,%edx
  4083eb:	81 e2 80 80 80 80    	and    $0x80808080,%edx
  4083f1:	74 e7                	je     4083da <PaintValue+0xda>
  4083f3:	89 d0                	mov    %edx,%eax
  4083f5:	0f bf 8d 70 01 00 00 	movswl 0x170(%rbp),%ecx
  4083fc:	48 8b b5 a8 00 00 00 	mov    0xa8(%rbp),%rsi
  408403:	c1 e8 10             	shr    $0x10,%eax
  408406:	f7 c2 80 80 00 00    	test   $0x8080,%edx
  40840c:	4d 89 e1             	mov    %r12,%r9
  40840f:	0f 44 d0             	cmove  %eax,%edx
  408412:	49 8d 40 02          	lea    0x2(%r8),%rax
  408416:	4c 0f 44 c0          	cmove  %rax,%r8
  40841a:	00 d2                	add    %dl,%dl
  40841c:	48 8b 85 98 00 00 00 	mov    0x98(%rbp),%rax
  408423:	49 83 d8 03          	sbb    $0x3,%r8
  408427:	48 8b 95 88 01 00 00 	mov    0x188(%rbp),%rdx
  40842e:	81 e9 8c 00 00 00    	sub    $0x8c,%ecx
  408434:	4d 29 e0             	sub    %r12,%r8
  408437:	48 8b 78 08          	mov    0x8(%rax),%rdi
  40843b:	44 89 04 24          	mov    %r8d,(%rsp)
  40843f:	44 8b 05 7e 5a 20 00 	mov    0x205a7e(%rip),%r8d        # 60dec4 <hlpos>
  408446:	e8 ed 98 ff ff       	callq  401d38 <XDrawString@plt>
  40844b:	e9 d5 fe ff ff       	jmpq   408325 <PaintValue+0x25>
  408450:	8b 0d 7a 5a 20 00    	mov    0x205a7a(%rip),%ecx        # 60ded0 <font_height>
  408456:	8b 15 70 5a 20 00    	mov    0x205a70(%rip),%edx        # 60decc <font_width>
  40845c:	48 8b 85 98 00 00 00 	mov    0x98(%rbp),%rax
  408463:	48 8b b5 a8 00 00 00 	mov    0xa8(%rbp),%rsi
  40846a:	44 8d 0c 09          	lea    (%rcx,%rcx,1),%r9d
  40846e:	44 8d 04 52          	lea    (%rdx,%rdx,2),%r8d
  408472:	03 15 50 5a 20 00    	add    0x205a50(%rip),%edx        # 60dec8 <vlpos>
  408478:	48 8b 78 08          	mov    0x8(%rax),%rdi
  40847c:	c7 04 24 00 00 00 00 	movl   $0x0,(%rsp)
  408483:	41 8d 0c 09          	lea    (%r9,%rcx,1),%ecx
  408487:	41 c1 e0 02          	shl    $0x2,%r8d
  40848b:	e8 d8 9b ff ff       	callq  402068 <XClearArea@plt>
  408490:	4d 89 e0             	mov    %r12,%r8
  408493:	41 8b 00             	mov    (%r8),%eax
  408496:	49 83 c0 04          	add    $0x4,%r8
  40849a:	8d 90 ff fe fe fe    	lea    -0x1010101(%rax),%edx
  4084a0:	f7 d0                	not    %eax
  4084a2:	21 c2                	and    %eax,%edx
  4084a4:	81 e2 80 80 80 80    	and    $0x80808080,%edx
  4084aa:	74 e7                	je     408493 <PaintValue+0x193>
  4084ac:	89 d0                	mov    %edx,%eax
  4084ae:	8b 0d 18 5a 20 00    	mov    0x205a18(%rip),%ecx        # 60decc <font_width>
  4084b4:	48 8b b5 a8 00 00 00 	mov    0xa8(%rbp),%rsi
  4084bb:	c1 e8 10             	shr    $0x10,%eax
  4084be:	f7 c2 80 80 00 00    	test   $0x8080,%edx
  4084c4:	4d 89 e1             	mov    %r12,%r9
  4084c7:	0f 44 d0             	cmove  %eax,%edx
  4084ca:	49 8d 40 02          	lea    0x2(%r8),%rax
  4084ce:	4c 0f 44 c0          	cmove  %rax,%r8
  4084d2:	00 d2                	add    %dl,%dl
  4084d4:	48 8b 85 98 00 00 00 	mov    0x98(%rbp),%rax
  4084db:	49 83 d8 03          	sbb    $0x3,%r8
  4084df:	48 8b 95 88 01 00 00 	mov    0x188(%rbp),%rdx
  4084e6:	01 c9                	add    %ecx,%ecx
  4084e8:	4d 29 e0             	sub    %r12,%r8
  4084eb:	03 0d d7 59 20 00    	add    0x2059d7(%rip),%ecx        # 60dec8 <vlpos>
  4084f1:	48 8b 78 08          	mov    0x8(%rax),%rdi
  4084f5:	44 89 04 24          	mov    %r8d,(%rsp)
  4084f9:	44 8b 05 d0 59 20 00 	mov    0x2059d0(%rip),%r8d        # 60ded0 <font_height>
  408500:	41 c1 e0 02          	shl    $0x2,%r8d
  408504:	e8 2f 98 ff ff       	callq  401d38 <XDrawString@plt>
  408509:	e9 17 fe ff ff       	jmpq   408325 <PaintValue+0x25>
  40850e:	66 90                	xchg   %ax,%ax
  408510:	f2 0f 10 85 48 01 00 	movsd  0x148(%rbp),%xmm0
  408517:	00 
  408518:	48 8d 9c 24 90 00 00 	lea    0x90(%rsp),%rbx
  40851f:	00 
  408520:	4c 8d 64 24 10       	lea    0x10(%rsp),%r12
  408525:	66 0f 54 05 e3 19 00 	andpd  0x19e3(%rip),%xmm0        # 409f10 <__dso_handle+0x2e8>
  40852c:	00 
  40852d:	e8 f6 97 ff ff       	callq  401d28 <log10@plt>
  408532:	f2 0f 2c d0          	cvttsd2si %xmm0,%edx
  408536:	48 89 df             	mov    %rbx,%rdi
  408539:	be 98 a1 40 00       	mov    $0x40a198,%esi
  40853e:	31 c0                	xor    %eax,%eax
  408540:	83 c2 01             	add    $0x1,%edx
  408543:	e8 50 9a ff ff       	callq  401f98 <sprintf@plt>
  408548:	f2 0f 10 85 50 01 00 	movsd  0x150(%rbp),%xmm0
  40854f:	00 
  408550:	48 89 de             	mov    %rbx,%rsi
  408553:	4c 89 e7             	mov    %r12,%rdi
  408556:	31 c0                	xor    %eax,%eax
  408558:	f2 0f 2c d0          	cvttsd2si %xmm0,%edx
  40855c:	e8 37 9a ff ff       	callq  401f98 <sprintf@plt>
  408561:	e9 24 fe ff ff       	jmpq   40838a <PaintValue+0x8a>
  408566:	66 2e 0f 1f 84 00 00 	nopw   %cs:0x0(%rax,%rax,1)
  40856d:	00 00 00 

0000000000408570 <XawIntSliderSetValue>:
  408570:	53                   	push   %rbx
  408571:	80 bf 80 01 00 00 63 	cmpb   $0x63,0x180(%rdi)
  408578:	48 89 fb             	mov    %rdi,%rbx
  40857b:	0f 84 b3 00 00 00    	je     408634 <XawIntSliderSetValue+0xc4>
  408581:	f2 0f 2a c6          	cvtsi2sd %esi,%xmm0
  408585:	f2 0f 10 9f 48 01 00 	movsd  0x148(%rdi),%xmm3
  40858c:	00 
  40858d:	66 0f 2e c3          	ucomisd %xmm3,%xmm0
  408591:	76 71                	jbe    408604 <XawIntSliderSetValue+0x94>
  408593:	66 0f 28 c3          	movapd %xmm3,%xmm0
  408597:	f2 0f 10 97 40 01 00 	movsd  0x140(%rdi),%xmm2
  40859e:	00 
  40859f:	66 0f 28 c8          	movapd %xmm0,%xmm1
  4085a3:	66 0f 28 c3          	movapd %xmm3,%xmm0
  4085a7:	f2 0f 5c ca          	subsd  %xmm2,%xmm1
  4085ab:	f2 0f 5c c2          	subsd  %xmm2,%xmm0
  4085af:	f2 0f 5e c8          	divsd  %xmm0,%xmm1
  4085b3:	f2 0f 10 05 65 19 00 	movsd  0x1965(%rip),%xmm0        # 409f20 <__dso_handle+0x2f8>
  4085ba:	00 
  4085bb:	66 0f 2e c8          	ucomisd %xmm0,%xmm1
  4085bf:	76 5f                	jbe    408620 <XawIntSliderSetValue+0xb0>
  4085c1:	66 0f 28 c8          	movapd %xmm0,%xmm1
  4085c5:	66 0f 28 c3          	movapd %xmm3,%xmm0
  4085c9:	f2 0f 11 8b 30 01 00 	movsd  %xmm1,0x130(%rbx)
  4085d0:	00 
  4085d1:	48 89 df             	mov    %rbx,%rdi
  4085d4:	f2 0f 5c c2          	subsd  %xmm2,%xmm0
  4085d8:	f2 0f 59 c1          	mulsd  %xmm1,%xmm0
  4085dc:	f2 0f 58 c2          	addsd  %xmm2,%xmm0
  4085e0:	f2 0f 2c c0          	cvttsd2si %xmm0,%eax
  4085e4:	f2 0f 11 83 50 01 00 	movsd  %xmm0,0x150(%rbx)
  4085eb:	00 
  4085ec:	89 83 6c 01 00 00    	mov    %eax,0x16c(%rbx)
  4085f2:	31 c0                	xor    %eax,%eax
  4085f4:	e8 d7 f6 ff ff       	callq  407cd0 <PaintThumb>
  4085f9:	48 89 df             	mov    %rbx,%rdi
  4085fc:	31 c0                	xor    %eax,%eax
  4085fe:	5b                   	pop    %rbx
  4085ff:	e9 fc fc ff ff       	jmpq   408300 <PaintValue>
  408604:	f2 0f 10 97 40 01 00 	movsd  0x140(%rdi),%xmm2
  40860b:	00 
  40860c:	66 0f 28 ca          	movapd %xmm2,%xmm1
  408610:	f2 0f 5f c8          	maxsd  %xmm0,%xmm1
  408614:	66 0f 28 c1          	movapd %xmm1,%xmm0
  408618:	eb 85                	jmp    40859f <XawIntSliderSetValue+0x2f>
  40861a:	66 0f 1f 44 00 00    	nopw   0x0(%rax,%rax,1)
  408620:	66 0f 2e 0d 90 18 00 	ucomisd 0x1890(%rip),%xmm1        # 409eb8 <__dso_handle+0x290>
  408627:	00 
  408628:	73 9b                	jae    4085c5 <XawIntSliderSetValue+0x55>
  40862a:	f2 0f 10 8b 30 01 00 	movsd  0x130(%rbx),%xmm1
  408631:	00 
  408632:	eb 91                	jmp    4085c5 <XawIntSliderSetValue+0x55>
  408634:	5b                   	pop    %rbx
  408635:	c3                   	retq   
  408636:	66 2e 0f 1f 84 00 00 	nopw   %cs:0x0(%rax,%rax,1)
  40863d:	00 00 00 

0000000000408640 <XawSliderSetValue>:
  408640:	53                   	push   %rbx
  408641:	80 bf 80 01 00 00 63 	cmpb   $0x63,0x180(%rdi)
  408648:	48 89 fb             	mov    %rdi,%rbx
  40864b:	0f 84 af 00 00 00    	je     408700 <XawSliderSetValue+0xc0>
  408651:	f2 0f 10 9f 48 01 00 	movsd  0x148(%rdi),%xmm3
  408658:	00 
  408659:	66 0f 2e c3          	ucomisd %xmm3,%xmm0
  40865d:	76 71                	jbe    4086d0 <XawSliderSetValue+0x90>
  40865f:	66 0f 28 c3          	movapd %xmm3,%xmm0
  408663:	f2 0f 10 97 40 01 00 	movsd  0x140(%rdi),%xmm2
  40866a:	00 
  40866b:	66 0f 28 c8          	movapd %xmm0,%xmm1
  40866f:	66 0f 28 c3          	movapd %xmm3,%xmm0
  408673:	f2 0f 5c ca          	subsd  %xmm2,%xmm1
  408677:	f2 0f 5c c2          	subsd  %xmm2,%xmm0
  40867b:	f2 0f 5e c8          	divsd  %xmm0,%xmm1
  40867f:	f2 0f 10 05 99 18 00 	movsd  0x1899(%rip),%xmm0        # 409f20 <__dso_handle+0x2f8>
  408686:	00 
  408687:	66 0f 2e c8          	ucomisd %xmm0,%xmm1
  40868b:	76 59                	jbe    4086e6 <XawSliderSetValue+0xa6>
  40868d:	66 0f 28 c8          	movapd %xmm0,%xmm1
  408691:	66 0f 28 c3          	movapd %xmm3,%xmm0
  408695:	f2 0f 11 8b 30 01 00 	movsd  %xmm1,0x130(%rbx)
  40869c:	00 
  40869d:	48 89 df             	mov    %rbx,%rdi
  4086a0:	f2 0f 5c c2          	subsd  %xmm2,%xmm0
  4086a4:	f2 0f 59 c1          	mulsd  %xmm1,%xmm0
  4086a8:	f2 0f 58 c2          	addsd  %xmm2,%xmm0
  4086ac:	f2 0f 2c c0          	cvttsd2si %xmm0,%eax
  4086b0:	f2 0f 11 83 50 01 00 	movsd  %xmm0,0x150(%rbx)
  4086b7:	00 
  4086b8:	89 83 6c 01 00 00    	mov    %eax,0x16c(%rbx)
  4086be:	31 c0                	xor    %eax,%eax
  4086c0:	e8 0b f6 ff ff       	callq  407cd0 <PaintThumb>
  4086c5:	48 89 df             	mov    %rbx,%rdi
  4086c8:	31 c0                	xor    %eax,%eax
  4086ca:	5b                   	pop    %rbx
  4086cb:	e9 30 fc ff ff       	jmpq   408300 <PaintValue>
  4086d0:	f2 0f 10 97 40 01 00 	movsd  0x140(%rdi),%xmm2
  4086d7:	00 
  4086d8:	66 0f 28 ca          	movapd %xmm2,%xmm1
  4086dc:	f2 0f 5f c8          	maxsd  %xmm0,%xmm1
  4086e0:	66 0f 28 c1          	movapd %xmm1,%xmm0
  4086e4:	eb 85                	jmp    40866b <XawSliderSetValue+0x2b>
  4086e6:	66 0f 2e 0d ca 17 00 	ucomisd 0x17ca(%rip),%xmm1        # 409eb8 <__dso_handle+0x290>
  4086ed:	00 
  4086ee:	73 a1                	jae    408691 <XawSliderSetValue+0x51>
  4086f0:	f2 0f 10 8b 30 01 00 	movsd  0x130(%rbx),%xmm1
  4086f7:	00 
  4086f8:	eb 97                	jmp    408691 <XawSliderSetValue+0x51>
  4086fa:	66 0f 1f 44 00 00    	nopw   0x0(%rax,%rax,1)
  408700:	5b                   	pop    %rbx
  408701:	c3                   	retq   
  408702:	0f 1f 80 00 00 00 00 	nopl   0x0(%rax)
  408709:	0f 1f 80 00 00 00 00 	nopl   0x0(%rax)

0000000000408710 <ZeroSlide>:
  408710:	55                   	push   %rbp
  408711:	48 89 fd             	mov    %rdi,%rbp
  408714:	53                   	push   %rbx
  408715:	48 89 f3             	mov    %rsi,%rbx
  408718:	48 83 ec 28          	sub    $0x28,%rsp
  40871c:	48 c7 44 24 10 00 00 	movq   $0x0,0x10(%rsp)
  408723:	00 00 
  408725:	80 bf 67 01 00 00 00 	cmpb   $0x0,0x167(%rdi)
  40872c:	74 71                	je     40879f <ZeroSlide+0x8f>
  40872e:	8b 05 b4 56 20 00    	mov    0x2056b4(%rip),%eax        # 60dde8 <i.9137>
  408734:	85 c0                	test   %eax,%eax
  408736:	0f 84 c4 00 00 00    	je     408800 <ZeroSlide+0xf0>
  40873c:	48 8d 4c 24 18       	lea    0x18(%rsp),%rcx
  408741:	48 8d 74 24 27       	lea    0x27(%rsp),%rsi
  408746:	45 31 c0             	xor    %r8d,%r8d
  408749:	ba 01 00 00 00       	mov    $0x1,%edx
  40874e:	48 89 df             	mov    %rbx,%rdi
  408751:	e8 72 96 ff ff       	callq  401dc8 <XLookupString@plt>
  408756:	0f b6 54 24 27       	movzbl 0x27(%rsp),%edx
  40875b:	8d 42 d0             	lea    -0x30(%rdx),%eax
  40875e:	3c 09                	cmp    $0x9,%al
  408760:	77 44                	ja     4087a6 <ZeroSlide+0x96>
  408762:	48 63 05 7f 56 20 00 	movslq 0x20567f(%rip),%rax        # 60dde8 <i.9137>
  408769:	be a5 a1 40 00       	mov    $0x40a1a5,%esi
  40876e:	bf 00 ba 60 00       	mov    $0x60ba00,%edi
  408773:	88 90 00 ba 60 00    	mov    %dl,0x60ba00(%rax)
  408779:	48 8d 54 24 10       	lea    0x10(%rsp),%rdx
  40877e:	31 c0                	xor    %eax,%eax
  408780:	e8 53 98 ff ff       	callq  401fd8 <sscanf@plt>
  408785:	f2 0f 10 44 24 10    	movsd  0x10(%rsp),%xmm0
  40878b:	48 89 ef             	mov    %rbp,%rdi
  40878e:	b8 01 00 00 00       	mov    $0x1,%eax
  408793:	e8 a8 fe ff ff       	callq  408640 <XawSliderSetValue>
  408798:	83 05 49 56 20 00 01 	addl   $0x1,0x205649(%rip)        # 60dde8 <i.9137>
  40879f:	48 83 c4 28          	add    $0x28,%rsp
  4087a3:	5b                   	pop    %rbx
  4087a4:	5d                   	pop    %rbp
  4087a5:	c3                   	retq   
  4087a6:	80 fa 2e             	cmp    $0x2e,%dl
  4087a9:	74 b7                	je     408762 <ZeroSlide+0x52>
  4087ab:	80 fa 2d             	cmp    $0x2d,%dl
  4087ae:	74 b2                	je     408762 <ZeroSlide+0x52>
  4087b0:	8b 05 32 56 20 00    	mov    0x205632(%rip),%eax        # 60dde8 <i.9137>
  4087b6:	85 c0                	test   %eax,%eax
  4087b8:	74 05                	je     4087bf <ZeroSlide+0xaf>
  4087ba:	80 fa 08             	cmp    $0x8,%dl
  4087bd:	74 6f                	je     40882e <ZeroSlide+0x11e>
  4087bf:	80 fa 0d             	cmp    $0xd,%dl
  4087c2:	75 db                	jne    40879f <ZeroSlide+0x8f>
  4087c4:	85 c0                	test   %eax,%eax
  4087c6:	75 4e                	jne    408816 <ZeroSlide+0x106>
  4087c8:	f2 0f 10 44 24 10    	movsd  0x10(%rsp),%xmm0
  4087ce:	48 89 ef             	mov    %rbp,%rdi
  4087d1:	b8 01 00 00 00       	mov    $0x1,%eax
  4087d6:	c7 05 08 56 20 00 00 	movl   $0x0,0x205608(%rip)        # 60dde8 <i.9137>
  4087dd:	00 00 00 
  4087e0:	e8 5b fe ff ff       	callq  408640 <XawSliderSetValue>
  4087e5:	48 8d 95 50 01 00 00 	lea    0x150(%rbp),%rdx
  4087ec:	be b4 a0 40 00       	mov    $0x40a0b4,%esi
  4087f1:	48 89 ef             	mov    %rbp,%rdi
  4087f4:	e8 5f 96 ff ff       	callq  401e58 <XtCallCallbacks@plt>
  4087f9:	eb a4                	jmp    40879f <ZeroSlide+0x8f>
  4087fb:	0f 1f 44 00 00       	nopl   0x0(%rax,%rax,1)
  408800:	ba 80 00 00 00       	mov    $0x80,%edx
  408805:	31 f6                	xor    %esi,%esi
  408807:	bf 00 ba 60 00       	mov    $0x60ba00,%edi
  40880c:	e8 77 95 ff ff       	callq  401d88 <memset@plt>
  408811:	e9 26 ff ff ff       	jmpq   40873c <ZeroSlide+0x2c>
  408816:	48 8d 54 24 10       	lea    0x10(%rsp),%rdx
  40881b:	be a5 a1 40 00       	mov    $0x40a1a5,%esi
  408820:	bf 00 ba 60 00       	mov    $0x60ba00,%edi
  408825:	31 c0                	xor    %eax,%eax
  408827:	e8 ac 97 ff ff       	callq  401fd8 <sscanf@plt>
  40882c:	eb 9a                	jmp    4087c8 <ZeroSlide+0xb8>
  40882e:	83 e8 01             	sub    $0x1,%eax
  408831:	48 8d 54 24 10       	lea    0x10(%rsp),%rdx
  408836:	be a5 a1 40 00       	mov    $0x40a1a5,%esi
  40883b:	89 05 a7 55 20 00    	mov    %eax,0x2055a7(%rip)        # 60dde8 <i.9137>
  408841:	48 98                	cltq   
  408843:	bf 00 ba 60 00       	mov    $0x60ba00,%edi
  408848:	c6 80 00 ba 60 00 00 	movb   $0x0,0x60ba00(%rax)
  40884f:	31 c0                	xor    %eax,%eax
  408851:	e8 82 97 ff ff       	callq  401fd8 <sscanf@plt>
  408856:	f2 0f 10 44 24 10    	movsd  0x10(%rsp),%xmm0
  40885c:	48 89 ef             	mov    %rbp,%rdi
  40885f:	b8 01 00 00 00       	mov    $0x1,%eax
  408864:	e8 d7 fd ff ff       	callq  408640 <XawSliderSetValue>
  408869:	e9 31 ff ff ff       	jmpq   40879f <ZeroSlide+0x8f>
  40886e:	66 90                	xchg   %ax,%ax

0000000000408870 <MoveThumb>:
  408870:	55                   	push   %rbp
  408871:	48 89 f5             	mov    %rsi,%rbp
  408874:	53                   	push   %rbx
  408875:	48 89 fb             	mov    %rdi,%rbx
  408878:	48 83 ec 08          	sub    $0x8,%rsp
  40887c:	0f b6 87 80 01 00 00 	movzbl 0x180(%rdi),%eax
  408883:	84 c0                	test   %al,%al
  408885:	0f 84 e7 00 00 00    	je     408972 <MoveThumb+0x102>
  40888b:	3c 43                	cmp    $0x43,%al
  40888d:	0f 84 d2 00 00 00    	je     408965 <MoveThumb+0xf5>
  408893:	31 c0                	xor    %eax,%eax
  408895:	48 89 ee             	mov    %rbp,%rsi
  408898:	48 89 df             	mov    %rbx,%rdi
  40889b:	e8 10 f1 ff ff       	callq  4079b0 <LookAhead>
  4088a0:	84 c0                	test   %al,%al
  4088a2:	0f 85 ca 00 00 00    	jne    408972 <MoveThumb+0x102>
  4088a8:	83 7d 00 08          	cmpl   $0x8,0x0(%rbp)
  4088ac:	0f 86 ee 00 00 00    	jbe    4089a0 <MoveThumb+0x130>
  4088b2:	31 f6                	xor    %esi,%esi
  4088b4:	31 c0                	xor    %eax,%eax
  4088b6:	8b bb e0 00 00 00    	mov    0xe0(%rbx),%edi
  4088bc:	0f b7 8b 70 01 00 00 	movzwl 0x170(%rbx),%ecx
  4088c3:	0f b7 93 72 01 00 00 	movzwl 0x172(%rbx),%edx
  4088ca:	85 ff                	test   %edi,%edi
  4088cc:	0f 85 ae 00 00 00    	jne    408980 <MoveThumb+0x110>
  4088d2:	66 29 ce             	sub    %cx,%si
  4088d5:	0f bf c6             	movswl %si,%eax
  4088d8:	f2 0f 2a d8          	cvtsi2sd %eax,%xmm3
  4088dc:	0f b7 83 60 01 00 00 	movzwl 0x160(%rbx),%eax
  4088e3:	f2 0f 2a c0          	cvtsi2sd %eax,%xmm0
  4088e7:	f2 0f 5e d8          	divsd  %xmm0,%xmm3
  4088eb:	f2 0f 10 15 2d 16 00 	movsd  0x162d(%rip),%xmm2        # 409f20 <__dso_handle+0x2f8>
  4088f2:	00 
  4088f3:	b8 03 00 00 00       	mov    $0x3,%eax
  4088f8:	66 0f 28 c3          	movapd %xmm3,%xmm0
  4088fc:	66 0f 57 c9          	xorpd  %xmm1,%xmm1
  408900:	e8 9b ee ff ff       	callq  4077a0 <DoubleInRange>
  408905:	f2 0f 10 93 40 01 00 	movsd  0x140(%rbx),%xmm2
  40890c:	00 
  40890d:	48 89 df             	mov    %rbx,%rdi
  408910:	f2 0f 10 8b 48 01 00 	movsd  0x148(%rbx),%xmm1
  408917:	00 
  408918:	f2 0f 11 83 30 01 00 	movsd  %xmm0,0x130(%rbx)
  40891f:	00 
  408920:	f2 0f 5c ca          	subsd  %xmm2,%xmm1
  408924:	f2 0f 59 c8          	mulsd  %xmm0,%xmm1
  408928:	f2 0f 58 ca          	addsd  %xmm2,%xmm1
  40892c:	f2 0f 2c c1          	cvttsd2si %xmm1,%eax
  408930:	f2 0f 11 8b 50 01 00 	movsd  %xmm1,0x150(%rbx)
  408937:	00 
  408938:	89 83 6c 01 00 00    	mov    %eax,0x16c(%rbx)
  40893e:	31 c0                	xor    %eax,%eax
  408940:	e8 8b f3 ff ff       	callq  407cd0 <PaintThumb>
  408945:	48 89 df             	mov    %rbx,%rdi
  408948:	31 c0                	xor    %eax,%eax
  40894a:	e8 b1 f9 ff ff       	callq  408300 <PaintValue>
  40894f:	48 8b 83 98 00 00 00 	mov    0x98(%rbx),%rax
  408956:	48 8b 78 08          	mov    0x8(%rax),%rdi
  40895a:	48 83 c4 08          	add    $0x8,%rsp
  40895e:	5b                   	pop    %rbx
  40895f:	5d                   	pop    %rbp
  408960:	e9 63 97 ff ff       	jmpq   4020c8 <XFlush@plt>
  408965:	80 bf 67 01 00 00 00 	cmpb   $0x0,0x167(%rdi)
  40896c:	0f 85 21 ff ff ff    	jne    408893 <MoveThumb+0x23>
  408972:	48 83 c4 08          	add    $0x8,%rsp
  408976:	5b                   	pop    %rbx
  408977:	5d                   	pop    %rbp
  408978:	c3                   	retq   
  408979:	0f 1f 80 00 00 00 00 	nopl   0x0(%rax)
  408980:	66 29 d0             	sub    %dx,%ax
  408983:	98                   	cwtl   
  408984:	f7 d8                	neg    %eax
  408986:	f2 0f 2a d8          	cvtsi2sd %eax,%xmm3
  40898a:	0f b7 83 60 01 00 00 	movzwl 0x160(%rbx),%eax
  408991:	f2 0f 2a c0          	cvtsi2sd %eax,%xmm0
  408995:	f2 0f 5e d8          	divsd  %xmm0,%xmm3
  408999:	e9 4d ff ff ff       	jmpq   4088eb <MoveThumb+0x7b>
  40899e:	66 90                	xchg   %ax,%ax
  4089a0:	8b 45 00             	mov    0x0(%rbp),%eax
  4089a3:	ff 24 c5 50 a1 40 00 	jmpq   *0x40a150(,%rax,8)
  4089aa:	66 0f 1f 44 00 00    	nopw   0x0(%rax,%rax,1)
  4089b0:	0f b7 75 40          	movzwl 0x40(%rbp),%esi
  4089b4:	0f b7 45 44          	movzwl 0x44(%rbp),%eax
  4089b8:	e9 f9 fe ff ff       	jmpq   4088b6 <MoveThumb+0x46>
  4089bd:	0f 1f 00             	nopl   (%rax)

00000000004089c0 <NotifySlide>:
  4089c0:	53                   	push   %rbx
  4089c1:	48 89 fb             	mov    %rdi,%rbx
  4089c4:	48 83 ec 30          	sub    $0x30,%rsp
  4089c8:	0f b6 87 80 01 00 00 	movzbl 0x180(%rdi),%eax
  4089cf:	84 c0                	test   %al,%al
  4089d1:	74 5f                	je     408a32 <NotifySlide+0x72>
  4089d3:	3c 43                	cmp    $0x43,%al
  4089d5:	0f 84 4a 01 00 00    	je     408b25 <NotifySlide+0x165>
  4089db:	f2 0f 10 83 58 01 00 	movsd  0x158(%rbx),%xmm0
  4089e2:	00 
  4089e3:	66 0f 2e 05 d5 18 00 	ucomisd 0x18d5(%rip),%xmm0        # 40a2c0 <pos_val.3146+0x2c0>
  4089ea:	00 
  4089eb:	75 4b                	jne    408a38 <NotifySlide+0x78>
  4089ed:	7a 49                	jp     408a38 <NotifySlide+0x78>
  4089ef:	f2 0f 10 05 d1 18 00 	movsd  0x18d1(%rip),%xmm0        # 40a2c8 <pos_val.3146+0x2c8>
  4089f6:	00 
  4089f7:	80 bb 68 01 00 00 01 	cmpb   $0x1,0x168(%rbx)
  4089fe:	74 57                	je     408a57 <NotifySlide+0x97>
  408a00:	31 c0                	xor    %eax,%eax
  408a02:	48 89 df             	mov    %rbx,%rdi
  408a05:	f2 0f 11 44 24 20    	movsd  %xmm0,0x20(%rsp)
  408a0b:	e8 a0 ef ff ff       	callq  4079b0 <LookAhead>
  408a10:	84 c0                	test   %al,%al
  408a12:	f2 0f 10 44 24 20    	movsd  0x20(%rsp),%xmm0
  408a18:	75 18                	jne    408a32 <NotifySlide+0x72>
  408a1a:	0f b6 83 80 01 00 00 	movzbl 0x180(%rbx),%eax
  408a21:	3c 46                	cmp    $0x46,%al
  408a23:	74 48                	je     408a6d <NotifySlide+0xad>
  408a25:	7e 3a                	jle    408a61 <NotifySlide+0xa1>
  408a27:	3c 62                	cmp    $0x62,%al
  408a29:	74 3a                	je     408a65 <NotifySlide+0xa5>
  408a2b:	3c 66                	cmp    $0x66,%al
  408a2d:	0f 1f 00             	nopl   (%rax)
  408a30:	74 3b                	je     408a6d <NotifySlide+0xad>
  408a32:	48 83 c4 30          	add    $0x30,%rsp
  408a36:	5b                   	pop    %rbx
  408a37:	c3                   	retq   
  408a38:	f2 0f 10 0d 88 18 00 	movsd  0x1888(%rip),%xmm1        # 40a2c8 <pos_val.3146+0x2c8>
  408a3f:	00 
  408a40:	66 0f 2e c1          	ucomisd %xmm1,%xmm0
  408a44:	0f 86 ed 00 00 00    	jbe    408b37 <NotifySlide+0x177>
  408a4a:	80 bb 68 01 00 00 01 	cmpb   $0x1,0x168(%rbx)
  408a51:	66 0f 28 c1          	movapd %xmm1,%xmm0
  408a55:	75 a9                	jne    408a00 <NotifySlide+0x40>
  408a57:	f2 0f 10 05 c1 14 00 	movsd  0x14c1(%rip),%xmm0        # 409f20 <__dso_handle+0x2f8>
  408a5e:	00 
  408a5f:	eb 9f                	jmp    408a00 <NotifySlide+0x40>
  408a61:	3c 42                	cmp    $0x42,%al
  408a63:	75 cd                	jne    408a32 <NotifySlide+0x72>
  408a65:	66 0f 57 05 93 14 00 	xorpd  0x1493(%rip),%xmm0        # 409f00 <__dso_handle+0x2d8>
  408a6c:	00 
  408a6d:	80 bb 68 01 00 00 01 	cmpb   $0x1,0x168(%rbx)
  408a74:	0f 84 db 00 00 00    	je     408b55 <NotifySlide+0x195>
  408a7a:	f2 0f 10 0d 3e 18 00 	movsd  0x183e(%rip),%xmm1        # 40a2c0 <pos_val.3146+0x2c0>
  408a81:	00 
  408a82:	66 0f 2e 8b 58 01 00 	ucomisd 0x158(%rbx),%xmm1
  408a89:	00 
  408a8a:	0f 85 00 01 00 00    	jne    408b90 <NotifySlide+0x1d0>
  408a90:	0f 8a fa 00 00 00    	jp     408b90 <NotifySlide+0x1d0>
  408a96:	66 0f 28 d8          	movapd %xmm0,%xmm3
  408a9a:	f2 0f 10 a3 40 01 00 	movsd  0x140(%rbx),%xmm4
  408aa1:	00 
  408aa2:	f2 0f 58 9b 30 01 00 	addsd  0x130(%rbx),%xmm3
  408aa9:	00 
  408aaa:	f2 0f 10 ab 48 01 00 	movsd  0x148(%rbx),%xmm5
  408ab1:	00 
  408ab2:	f2 0f 10 15 66 14 00 	movsd  0x1466(%rip),%xmm2        # 409f20 <__dso_handle+0x2f8>
  408ab9:	00 
  408aba:	b8 03 00 00 00       	mov    $0x3,%eax
  408abf:	66 0f 57 c9          	xorpd  %xmm1,%xmm1
  408ac3:	f2 0f 11 64 24 10    	movsd  %xmm4,0x10(%rsp)
  408ac9:	66 0f 28 c3          	movapd %xmm3,%xmm0
  408acd:	f2 0f 11 2c 24       	movsd  %xmm5,(%rsp)
  408ad2:	e8 c9 ec ff ff       	callq  4077a0 <DoubleInRange>
  408ad7:	f2 0f 11 83 30 01 00 	movsd  %xmm0,0x130(%rbx)
  408ade:	00 
  408adf:	48 89 df             	mov    %rbx,%rdi
  408ae2:	f2 0f 10 2c 24       	movsd  (%rsp),%xmm5
  408ae7:	f2 0f 10 64 24 10    	movsd  0x10(%rsp),%xmm4
  408aed:	66 0f 28 cd          	movapd %xmm5,%xmm1
  408af1:	f2 0f 5c cc          	subsd  %xmm4,%xmm1
  408af5:	f2 0f 59 c8          	mulsd  %xmm0,%xmm1
  408af9:	f2 0f 58 cc          	addsd  %xmm4,%xmm1
  408afd:	f2 0f 2c c1          	cvttsd2si %xmm1,%eax
  408b01:	f2 0f 11 8b 50 01 00 	movsd  %xmm1,0x150(%rbx)
  408b08:	00 
  408b09:	89 83 6c 01 00 00    	mov    %eax,0x16c(%rbx)
  408b0f:	31 c0                	xor    %eax,%eax
  408b11:	e8 ba f1 ff ff       	callq  407cd0 <PaintThumb>
  408b16:	48 89 df             	mov    %rbx,%rdi
  408b19:	48 83 c4 30          	add    $0x30,%rsp
  408b1d:	31 c0                	xor    %eax,%eax
  408b1f:	5b                   	pop    %rbx
  408b20:	e9 db f7 ff ff       	jmpq   408300 <PaintValue>
  408b25:	80 bf 67 01 00 00 00 	cmpb   $0x0,0x167(%rdi)
  408b2c:	0f 85 a9 fe ff ff    	jne    4089db <NotifySlide+0x1b>
  408b32:	e9 fb fe ff ff       	jmpq   408a32 <NotifySlide+0x72>
  408b37:	66 0f 2e 05 79 13 00 	ucomisd 0x1379(%rip),%xmm0        # 409eb8 <__dso_handle+0x290>
  408b3e:	00 
  408b3f:	0f 87 b2 fe ff ff    	ja     4089f7 <NotifySlide+0x37>
  408b45:	0f 8b ff fe ff ff    	jnp    408a4a <NotifySlide+0x8a>
  408b4b:	0f 1f 44 00 00       	nopl   0x0(%rax,%rax,1)
  408b50:	e9 a2 fe ff ff       	jmpq   4089f7 <NotifySlide+0x37>
  408b55:	f2 0f 58 83 50 01 00 	addsd  0x150(%rbx),%xmm0
  408b5c:	00 
  408b5d:	f2 0f 10 a3 40 01 00 	movsd  0x140(%rbx),%xmm4
  408b64:	00 
  408b65:	66 0f 2e e0          	ucomisd %xmm0,%xmm4
  408b69:	76 56                	jbe    408bc1 <NotifySlide+0x201>
  408b6b:	66 0f 28 c4          	movapd %xmm4,%xmm0
  408b6f:	f2 0f 10 ab 48 01 00 	movsd  0x148(%rbx),%xmm5
  408b76:	00 
  408b77:	66 0f 28 d8          	movapd %xmm0,%xmm3
  408b7b:	66 0f 28 c5          	movapd %xmm5,%xmm0
  408b7f:	f2 0f 5c dc          	subsd  %xmm4,%xmm3
  408b83:	f2 0f 5c c4          	subsd  %xmm4,%xmm0
  408b87:	f2 0f 5e d8          	divsd  %xmm0,%xmm3
  408b8b:	e9 22 ff ff ff       	jmpq   408ab2 <NotifySlide+0xf2>
  408b90:	66 0f 28 d8          	movapd %xmm0,%xmm3
  408b94:	f2 0f 10 ab 48 01 00 	movsd  0x148(%rbx),%xmm5
  408b9b:	00 
  408b9c:	f2 0f 58 9b 50 01 00 	addsd  0x150(%rbx),%xmm3
  408ba3:	00 
  408ba4:	f2 0f 10 a3 40 01 00 	movsd  0x140(%rbx),%xmm4
  408bab:	00 
  408bac:	66 0f 28 c5          	movapd %xmm5,%xmm0
  408bb0:	f2 0f 5c c4          	subsd  %xmm4,%xmm0
  408bb4:	f2 0f 5c dc          	subsd  %xmm4,%xmm3
  408bb8:	f2 0f 5e d8          	divsd  %xmm0,%xmm3
  408bbc:	e9 f1 fe ff ff       	jmpq   408ab2 <NotifySlide+0xf2>
  408bc1:	f2 0f 10 ab 48 01 00 	movsd  0x148(%rbx),%xmm5
  408bc8:	00 
  408bc9:	66 0f 28 cd          	movapd %xmm5,%xmm1
  408bcd:	f2 0f 5d c8          	minsd  %xmm0,%xmm1
  408bd1:	66 0f 28 c1          	movapd %xmm1,%xmm0
  408bd5:	eb a0                	jmp    408b77 <NotifySlide+0x1b7>
  408bd7:	66 0f 1f 84 00 00 00 	nopw   0x0(%rax,%rax,1)
  408bde:	00 00 

0000000000408be0 <Destroy>:
  408be0:	48 8b b7 88 01 00 00 	mov    0x188(%rdi),%rsi
  408be7:	e9 cc 94 ff ff       	jmpq   4020b8 <XtReleaseGC@plt>
  408bec:	0f 1f 40 00          	nopl   0x0(%rax)

0000000000408bf0 <CreateGC>:
  408bf0:	53                   	push   %rbx
  408bf1:	48 89 fb             	mov    %rdi,%rbx
  408bf4:	48 81 ec c0 00 00 00 	sub    $0xc0,%rsp
  408bfb:	c7 84 24 bc 00 00 00 	movl   $0x1,0xbc(%rsp)
  408c02:	01 00 00 00 
  408c06:	48 8b b7 f0 00 00 00 	mov    0xf0(%rdi),%rsi
  408c0d:	48 83 fe 02          	cmp    $0x2,%rsi
  408c11:	0f 84 e1 00 00 00    	je     408cf8 <CreateGC+0x108>
  408c17:	48 85 f6             	test   %rsi,%rsi
  408c1a:	75 64                	jne    408c80 <CreateGC+0x90>
  408c1c:	48 8b 83 d0 00 00 00 	mov    0xd0(%rbx),%rax
  408c23:	48 8d 54 24 20       	lea    0x20(%rsp),%rdx
  408c28:	48 89 df             	mov    %rbx,%rdi
  408c2b:	be 0c 40 00 00       	mov    $0x400c,%esi
  408c30:	48 89 44 24 30       	mov    %rax,0x30(%rsp)
  408c35:	48 8b 83 b8 00 00 00 	mov    0xb8(%rbx),%rax
  408c3c:	48 89 44 24 38       	mov    %rax,0x38(%rsp)
  408c41:	48 8b 83 98 01 00 00 	mov    0x198(%rbx),%rax
  408c48:	48 8b 40 08          	mov    0x8(%rax),%rax
  408c4c:	48 89 44 24 78       	mov    %rax,0x78(%rsp)
  408c51:	e8 a2 95 ff ff       	callq  4021f8 <XtGetGC@plt>
  408c56:	48 89 83 88 01 00 00 	mov    %rax,0x188(%rbx)
  408c5d:	48 89 c6             	mov    %rax,%rsi
  408c60:	48 8b 83 98 00 00 00 	mov    0x98(%rbx),%rax
  408c67:	31 d2                	xor    %edx,%edx
  408c69:	48 8b 78 08          	mov    0x8(%rax),%rdi
  408c6d:	e8 c6 91 ff ff       	callq  401e38 <XSetFillStyle@plt>
  408c72:	48 81 c4 c0 00 00 00 	add    $0xc0,%rsp
  408c79:	5b                   	pop    %rbx
  408c7a:	c3                   	retq   
  408c7b:	0f 1f 44 00 00       	nopl   0x0(%rax,%rax,1)
  408c80:	48 8b 87 98 00 00 00 	mov    0x98(%rdi),%rax
  408c87:	48 8d 8c 24 b8 00 00 	lea    0xb8(%rsp),%rcx
  408c8e:	00 
  408c8f:	48 8d 94 24 a0 00 00 	lea    0xa0(%rsp),%rdx
  408c96:	00 
  408c97:	4c 8d 8c 24 b0 00 00 	lea    0xb0(%rsp),%r9
  408c9e:	00 
  408c9f:	4c 8d 84 24 b4 00 00 	lea    0xb4(%rsp),%r8
  408ca6:	00 
  408ca7:	48 8b 78 08          	mov    0x8(%rax),%rdi
  408cab:	48 8d 84 24 bc 00 00 	lea    0xbc(%rsp),%rax
  408cb2:	00 
  408cb3:	48 89 44 24 10       	mov    %rax,0x10(%rsp)
  408cb8:	48 8d 84 24 a8 00 00 	lea    0xa8(%rsp),%rax
  408cbf:	00 
  408cc0:	48 89 44 24 08       	mov    %rax,0x8(%rsp)
  408cc5:	48 8d 84 24 ac 00 00 	lea    0xac(%rsp),%rax
  408ccc:	00 
  408ccd:	48 89 04 24          	mov    %rax,(%rsp)
  408cd1:	e8 b2 92 ff ff       	callq  401f88 <XGetGeometry@plt>
  408cd6:	85 c0                	test   %eax,%eax
  408cd8:	0f 85 3e ff ff ff    	jne    408c1c <CreateGC+0x2c>
  408cde:	48 89 df             	mov    %rbx,%rdi
  408ce1:	e8 12 94 ff ff       	callq  4020f8 <XtWidgetToApplicationContext@plt>
  408ce6:	be d0 a2 40 00       	mov    $0x40a2d0,%esi
  408ceb:	48 89 c7             	mov    %rax,%rdi
  408cee:	e8 45 94 ff ff       	callq  402138 <XtAppError@plt>
  408cf3:	e9 24 ff ff ff       	jmpq   408c1c <CreateGC+0x2c>
  408cf8:	48 8b bf 98 00 00 00 	mov    0x98(%rdi),%rdi
  408cff:	b9 01 00 00 00       	mov    $0x1,%ecx
  408d04:	31 d2                	xor    %edx,%edx
  408d06:	40 b6 01             	mov    $0x1,%sil
  408d09:	31 c0                	xor    %eax,%eax
  408d0b:	e8 d8 91 ff ff       	callq  401ee8 <XmuCreateStippledPixmap@plt>
  408d10:	48 98                	cltq   
  408d12:	48 89 83 f0 00 00 00 	mov    %rax,0xf0(%rbx)
  408d19:	e9 fe fe ff ff       	jmpq   408c1c <CreateGC+0x2c>
  408d1e:	66 90                	xchg   %ax,%ax

0000000000408d20 <SetValues>:
  408d20:	55                   	push   %rbp
  408d21:	48 89 fd             	mov    %rdi,%rbp
  408d24:	53                   	push   %rbx
  408d25:	48 89 d3             	mov    %rdx,%rbx
  408d28:	48 83 ec 08          	sub    $0x8,%rsp
  408d2c:	f2 0f 10 82 30 01 00 	movsd  0x130(%rdx),%xmm0
  408d33:	00 
  408d34:	66 0f 2e 05 7c 11 00 	ucomisd 0x117c(%rip),%xmm0        # 409eb8 <__dso_handle+0x290>
  408d3b:	00 
  408d3c:	7a 02                	jp     408d40 <SetValues+0x20>
  408d3e:	72 0a                	jb     408d4a <SetValues+0x2a>
  408d40:	66 0f 2e 05 d8 11 00 	ucomisd 0x11d8(%rip),%xmm0        # 409f20 <__dso_handle+0x2f8>
  408d47:	00 
  408d48:	76 0e                	jbe    408d58 <SetValues+0x38>
  408d4a:	48 8b 85 30 01 00 00 	mov    0x130(%rbp),%rax
  408d51:	48 89 83 30 01 00 00 	mov    %rax,0x130(%rbx)
  408d58:	f2 0f 10 8b 38 01 00 	movsd  0x138(%rbx),%xmm1
  408d5f:	00 
  408d60:	66 0f 57 c0          	xorpd  %xmm0,%xmm0
  408d64:	66 0f 2e c1          	ucomisd %xmm1,%xmm0
  408d68:	77 0a                	ja     408d74 <SetValues+0x54>
  408d6a:	66 0f 2e 0d ae 11 00 	ucomisd 0x11ae(%rip),%xmm1        # 409f20 <__dso_handle+0x2f8>
  408d71:	00 
  408d72:	76 0e                	jbe    408d82 <SetValues+0x62>
  408d74:	48 8b 85 38 01 00 00 	mov    0x138(%rbp),%rax
  408d7b:	48 89 83 38 01 00 00 	mov    %rax,0x138(%rbx)
  408d82:	48 89 df             	mov    %rbx,%rdi
  408d85:	e8 fe 90 ff ff       	callq  401e88 <XtWindowOfObject@plt>
  408d8a:	31 d2                	xor    %edx,%edx
  408d8c:	48 85 c0             	test   %rax,%rax
  408d8f:	74 5e                	je     408def <SetValues+0xcf>
  408d91:	48 8b 83 d0 00 00 00 	mov    0xd0(%rbx),%rax
  408d98:	48 39 85 d0 00 00 00 	cmp    %rax,0xd0(%rbp)
  408d9f:	74 57                	je     408df8 <SetValues+0xd8>
  408da1:	48 8b b5 f0 00 00 00 	mov    0xf0(%rbp),%rsi
  408da8:	48 89 ef             	mov    %rbp,%rdi
  408dab:	e8 08 93 ff ff       	callq  4020b8 <XtReleaseGC@plt>
  408db0:	31 c0                	xor    %eax,%eax
  408db2:	48 89 df             	mov    %rbx,%rdi
  408db5:	e8 36 fe ff ff       	callq  408bf0 <CreateGC>
  408dba:	b8 01 00 00 00       	mov    $0x1,%eax
  408dbf:	f2 0f 10 85 30 01 00 	movsd  0x130(%rbp),%xmm0
  408dc6:	00 
  408dc7:	66 0f 2e 83 30 01 00 	ucomisd 0x130(%rbx),%xmm0
  408dce:	00 
  408dcf:	75 19                	jne    408dea <SetValues+0xca>
  408dd1:	7a 17                	jp     408dea <SetValues+0xca>
  408dd3:	f2 0f 10 85 38 01 00 	movsd  0x138(%rbp),%xmm0
  408dda:	00 
  408ddb:	0f be d0             	movsbl %al,%edx
  408dde:	66 0f 2e 83 38 01 00 	ucomisd 0x138(%rbx),%xmm0
  408de5:	00 
  408de6:	7a 02                	jp     408dea <SetValues+0xca>
  408de8:	74 05                	je     408def <SetValues+0xcf>
  408dea:	ba 01 00 00 00       	mov    $0x1,%edx
  408def:	48 83 c4 08          	add    $0x8,%rsp
  408df3:	89 d0                	mov    %edx,%eax
  408df5:	5b                   	pop    %rbx
  408df6:	5d                   	pop    %rbp
  408df7:	c3                   	retq   
  408df8:	48 8b 83 b8 00 00 00 	mov    0xb8(%rbx),%rax
  408dff:	48 39 85 b8 00 00 00 	cmp    %rax,0xb8(%rbp)
  408e06:	75 99                	jne    408da1 <SetValues+0x81>
  408e08:	48 8b b5 f0 00 00 00 	mov    0xf0(%rbp),%rsi
  408e0f:	31 c0                	xor    %eax,%eax
  408e11:	48 3b b3 f0 00 00 00 	cmp    0xf0(%rbx),%rsi
  408e18:	75 8e                	jne    408da8 <SetValues+0x88>
  408e1a:	eb a3                	jmp    408dbf <SetValues+0x9f>
  408e1c:	0f 1f 40 00          	nopl   0x0(%rax)

0000000000408e20 <Initialize>:
  408e20:	53                   	push   %rbx
  408e21:	48 89 f7             	mov    %rsi,%rdi
  408e24:	48 89 f3             	mov    %rsi,%rbx
  408e27:	31 c0                	xor    %eax,%eax
  408e29:	e8 c2 fd ff ff       	callq  408bf0 <CreateGC>
  408e2e:	48 89 df             	mov    %rbx,%rdi
  408e31:	31 c0                	xor    %eax,%eax
  408e33:	5b                   	pop    %rbx
  408e34:	e9 a7 f1 ff ff       	jmpq   407fe0 <SetDimensions>
  408e39:	0f 1f 80 00 00 00 00 	nopl   0x0(%rax)

0000000000408e40 <Redisplay>:
  408e40:	41 54                	push   %r12
  408e42:	55                   	push   %rbp
  408e43:	53                   	push   %rbx
  408e44:	48 89 fb             	mov    %rdi,%rbx
  408e47:	48 89 d7             	mov    %rdx,%rdi
  408e4a:	48 81 ec 10 01 00 00 	sub    $0x110,%rsp
  408e51:	8b 83 e0 00 00 00    	mov    0xe0(%rbx),%eax
  408e57:	85 c0                	test   %eax,%eax
  408e59:	0f 85 a7 00 00 00    	jne    408f06 <Redisplay+0xc6>
  408e5f:	0f bf b3 90 01 00 00 	movswl 0x190(%rbx),%esi
  408e66:	0f b7 8b 92 01 00 00 	movzwl 0x192(%rbx),%ecx
  408e6d:	ba 01 00 00 00       	mov    $0x1,%edx
  408e72:	0f b7 83 62 01 00 00 	movzwl 0x162(%rbx),%eax
  408e79:	48 85 ff             	test   %rdi,%rdi
  408e7c:	74 62                	je     408ee0 <Redisplay+0xa0>
  408e7e:	41 89 c0             	mov    %eax,%r8d
  408e81:	e8 a2 91 ff ff       	callq  402028 <XRectInRegion@plt>
  408e86:	85 c0                	test   %eax,%eax
  408e88:	75 56                	jne    408ee0 <Redisplay+0xa0>
  408e8a:	48 8b 83 98 00 00 00 	mov    0x98(%rbx),%rax
  408e91:	48 8b b3 88 01 00 00 	mov    0x188(%rbx),%rsi
  408e98:	31 d2                	xor    %edx,%edx
  408e9a:	48 8b 78 08          	mov    0x8(%rax),%rdi
  408e9e:	e8 95 8f ff ff       	callq  401e38 <XSetFillStyle@plt>
  408ea3:	8b 83 e0 00 00 00    	mov    0xe0(%rbx),%eax
  408ea9:	85 c0                	test   %eax,%eax
  408eab:	75 78                	jne    408f25 <Redisplay+0xe5>
  408ead:	48 8b 83 28 01 00 00 	mov    0x128(%rbx),%rax
  408eb4:	80 38 00             	cmpb   $0x0,(%rax)
  408eb7:	0f 85 05 04 00 00    	jne    4092c2 <Redisplay+0x482>
  408ebd:	0f 1f 00             	nopl   (%rax)
  408ec0:	48 89 df             	mov    %rbx,%rdi
  408ec3:	31 c0                	xor    %eax,%eax
  408ec5:	e8 06 ee ff ff       	callq  407cd0 <PaintThumb>
  408eca:	48 89 df             	mov    %rbx,%rdi
  408ecd:	31 c0                	xor    %eax,%eax
  408ecf:	e8 2c f4 ff ff       	callq  408300 <PaintValue>
  408ed4:	48 81 c4 10 01 00 00 	add    $0x110,%rsp
  408edb:	5b                   	pop    %rbx
  408edc:	5d                   	pop    %rbp
  408edd:	41 5c                	pop    %r12
  408edf:	c3                   	retq   
  408ee0:	0f b7 83 60 01 00 00 	movzwl 0x160(%rbx),%eax
  408ee7:	48 89 df             	mov    %rbx,%rdi
  408eea:	f7 d0                	not    %eax
  408eec:	66 89 83 90 01 00 00 	mov    %ax,0x190(%rbx)
  408ef3:	31 c0                	xor    %eax,%eax
  408ef5:	e8 d6 ed ff ff       	callq  407cd0 <PaintThumb>
  408efa:	48 89 df             	mov    %rbx,%rdi
  408efd:	31 c0                	xor    %eax,%eax
  408eff:	e8 fc f3 ff ff       	callq  408300 <PaintValue>
  408f04:	eb 84                	jmp    408e8a <Redisplay+0x4a>
  408f06:	0f bf 93 90 01 00 00 	movswl 0x190(%rbx),%edx
  408f0d:	0f b7 8b 62 01 00 00 	movzwl 0x162(%rbx),%ecx
  408f14:	be 01 00 00 00       	mov    $0x1,%esi
  408f19:	0f b7 83 92 01 00 00 	movzwl 0x192(%rbx),%eax
  408f20:	e9 54 ff ff ff       	jmpq   408e79 <Redisplay+0x39>
  408f25:	48 8b 83 28 01 00 00 	mov    0x128(%rbx),%rax
  408f2c:	80 38 00             	cmpb   $0x0,(%rax)
  408f2f:	74 8f                	je     408ec0 <Redisplay+0x80>
  408f31:	48 8b 83 98 00 00 00 	mov    0x98(%rbx),%rax
  408f38:	48 8b b3 88 01 00 00 	mov    0x188(%rbx),%rsi
  408f3f:	45 31 c9             	xor    %r9d,%r9d
  408f42:	45 31 c0             	xor    %r8d,%r8d
  408f45:	31 c9                	xor    %ecx,%ecx
  408f47:	ba 02 00 00 00       	mov    $0x2,%edx
  408f4c:	48 8b 78 08          	mov    0x8(%rax),%rdi
  408f50:	e8 f3 90 ff ff       	callq  402048 <XSetLineAttributes@plt>
  408f55:	48 8b 83 98 00 00 00 	mov    0x98(%rbx),%rax
  408f5c:	44 0f b7 93 60 01 00 	movzwl 0x160(%rbx),%r10d
  408f63:	00 
  408f64:	44 0f bf 83 72 01 00 	movswl 0x172(%rbx),%r8d
  408f6b:	00 
  408f6c:	44 0f b7 8b 62 01 00 	movzwl 0x162(%rbx),%r9d
  408f73:	00 
  408f74:	0f bf 8b 70 01 00 00 	movswl 0x170(%rbx),%ecx
  408f7b:	48 8b 93 88 01 00 00 	mov    0x188(%rbx),%rdx
  408f82:	48 8b 78 08          	mov    0x8(%rax),%rdi
  408f86:	0f b7 83 64 01 00 00 	movzwl 0x164(%rbx),%eax
  408f8d:	48 8b b3 a8 00 00 00 	mov    0xa8(%rbx),%rsi
  408f94:	41 83 e8 01          	sub    $0x1,%r8d
  408f98:	41 83 c1 01          	add    $0x1,%r9d
  408f9c:	45 29 d0             	sub    %r10d,%r8d
  408f9f:	83 e9 01             	sub    $0x1,%ecx
  408fa2:	41 8d 44 02 01       	lea    0x1(%r10,%rax,1),%eax
  408fa7:	89 04 24             	mov    %eax,(%rsp)
  408faa:	e8 39 90 ff ff       	callq  401fe8 <XDrawRectangle@plt>
  408faf:	48 8b 83 98 00 00 00 	mov    0x98(%rbx),%rax
  408fb6:	48 8b b3 88 01 00 00 	mov    0x188(%rbx),%rsi
  408fbd:	45 31 c9             	xor    %r9d,%r9d
  408fc0:	45 31 c0             	xor    %r8d,%r8d
  408fc3:	31 c9                	xor    %ecx,%ecx
  408fc5:	ba 01 00 00 00       	mov    $0x1,%edx
  408fca:	48 8b 78 08          	mov    0x8(%rax),%rdi
  408fce:	e8 75 90 ff ff       	callq  402048 <XSetLineAttributes@plt>
  408fd3:	80 bb 68 01 00 00 01 	cmpb   $0x1,0x168(%rbx)
  408fda:	0f 84 c1 06 00 00    	je     4096a1 <Redisplay+0x861>
  408fe0:	4c 8d a4 24 90 00 00 	lea    0x90(%rsp),%r12
  408fe7:	00 
  408fe8:	f2 0f 10 83 40 01 00 	movsd  0x140(%rbx),%xmm0
  408fef:	00 
  408ff0:	be 9f a1 40 00       	mov    $0x40a19f,%esi
  408ff5:	b8 01 00 00 00       	mov    $0x1,%eax
  408ffa:	4c 89 e7             	mov    %r12,%rdi
  408ffd:	e8 96 8f ff ff       	callq  401f98 <sprintf@plt>
  409002:	4d 89 e0             	mov    %r12,%r8
  409005:	41 8b 00             	mov    (%r8),%eax
  409008:	49 83 c0 04          	add    $0x4,%r8
  40900c:	8d 90 ff fe fe fe    	lea    -0x1010101(%rax),%edx
  409012:	f7 d0                	not    %eax
  409014:	21 c2                	and    %eax,%edx
  409016:	81 e2 80 80 80 80    	and    $0x80808080,%edx
  40901c:	74 e7                	je     409005 <Redisplay+0x1c5>
  40901e:	89 d0                	mov    %edx,%eax
  409020:	0f bf 8b 70 01 00 00 	movswl 0x170(%rbx),%ecx
  409027:	44 0f bf 93 72 01 00 	movswl 0x172(%rbx),%r10d
  40902e:	00 
  40902f:	c1 e8 10             	shr    $0x10,%eax
  409032:	f7 c2 80 80 00 00    	test   $0x8080,%edx
  409038:	48 8b b3 a8 00 00 00 	mov    0xa8(%rbx),%rsi
  40903f:	0f 44 d0             	cmove  %eax,%edx
  409042:	49 8d 40 02          	lea    0x2(%r8),%rax
  409046:	4d 89 e1             	mov    %r12,%r9
  409049:	4c 0f 44 c0          	cmove  %rax,%r8
  40904d:	8b 05 79 4e 20 00    	mov    0x204e79(%rip),%eax        # 60decc <font_width>
  409053:	00 d2                	add    %dl,%dl
  409055:	49 83 d8 03          	sbb    $0x3,%r8
  409059:	48 8b 93 88 01 00 00 	mov    0x188(%rbx),%rdx
  409060:	4d 29 e0             	sub    %r12,%r8
  409063:	01 c0                	add    %eax,%eax
  409065:	29 c1                	sub    %eax,%ecx
  409067:	48 8b 83 98 00 00 00 	mov    0x98(%rbx),%rax
  40906e:	48 8b 78 08          	mov    0x8(%rax),%rdi
  409072:	44 89 04 24          	mov    %r8d,(%rsp)
  409076:	44 8b 05 53 4e 20 00 	mov    0x204e53(%rip),%r8d        # 60ded0 <font_height>
  40907d:	47 8d 04 42          	lea    (%r10,%r8,2),%r8d
  409081:	e8 b2 8c ff ff       	callq  401d38 <XDrawString@plt>
  409086:	80 bb 68 01 00 00 01 	cmpb   $0x1,0x168(%rbx)
  40908d:	0f 84 7e 06 00 00    	je     409711 <Redisplay+0x8d1>
  409093:	f2 0f 10 83 48 01 00 	movsd  0x148(%rbx),%xmm0
  40909a:	00 
  40909b:	be 9f a1 40 00       	mov    $0x40a19f,%esi
  4090a0:	4c 89 e7             	mov    %r12,%rdi
  4090a3:	b8 01 00 00 00       	mov    $0x1,%eax
  4090a8:	e8 eb 8e ff ff       	callq  401f98 <sprintf@plt>
  4090ad:	4d 89 e1             	mov    %r12,%r9
  4090b0:	41 8b 01             	mov    (%r9),%eax
  4090b3:	49 83 c1 04          	add    $0x4,%r9
  4090b7:	8d 90 ff fe fe fe    	lea    -0x1010101(%rax),%edx
  4090bd:	f7 d0                	not    %eax
  4090bf:	21 c2                	and    %eax,%edx
  4090c1:	81 e2 80 80 80 80    	and    $0x80808080,%edx
  4090c7:	74 e7                	je     4090b0 <Redisplay+0x270>
  4090c9:	89 d0                	mov    %edx,%eax
  4090cb:	44 0f bf 83 72 01 00 	movswl 0x172(%rbx),%r8d
  4090d2:	00 
  4090d3:	0f bf 8b 70 01 00 00 	movswl 0x170(%rbx),%ecx
  4090da:	c1 e8 10             	shr    $0x10,%eax
  4090dd:	f7 c2 80 80 00 00    	test   $0x8080,%edx
  4090e3:	48 8b b3 a8 00 00 00 	mov    0xa8(%rbx),%rsi
  4090ea:	0f 44 d0             	cmove  %eax,%edx
  4090ed:	49 8d 41 02          	lea    0x2(%r9),%rax
  4090f1:	48 8d 6c 24 10       	lea    0x10(%rsp),%rbp
  4090f6:	4c 0f 44 c8          	cmove  %rax,%r9
  4090fa:	0f b7 83 60 01 00 00 	movzwl 0x160(%rbx),%eax
  409101:	00 d2                	add    %dl,%dl
  409103:	49 83 d9 03          	sbb    $0x3,%r9
  409107:	48 8b 93 88 01 00 00 	mov    0x188(%rbx),%rdx
  40910e:	4d 29 e1             	sub    %r12,%r9
  409111:	41 29 c0             	sub    %eax,%r8d
  409114:	8b 05 b2 4d 20 00    	mov    0x204db2(%rip),%eax        # 60decc <font_width>
  40911a:	44 2b 05 af 4d 20 00 	sub    0x204daf(%rip),%r8d        # 60ded0 <font_height>
  409121:	01 c0                	add    %eax,%eax
  409123:	29 c1                	sub    %eax,%ecx
  409125:	48 8b 83 98 00 00 00 	mov    0x98(%rbx),%rax
  40912c:	48 8b 78 08          	mov    0x8(%rax),%rdi
  409130:	44 89 0c 24          	mov    %r9d,(%rsp)
  409134:	4d 89 e1             	mov    %r12,%r9
  409137:	e8 fc 8b ff ff       	callq  401d38 <XDrawString@plt>
  40913c:	48 8b b3 28 01 00 00 	mov    0x128(%rbx),%rsi
  409143:	48 89 ef             	mov    %rbp,%rdi
  409146:	e8 cd 8f ff ff       	callq  402118 <strcpy@plt>
  40914b:	49 89 e8             	mov    %rbp,%r8
  40914e:	41 8b 00             	mov    (%r8),%eax
  409151:	49 83 c0 04          	add    $0x4,%r8
  409155:	8d 90 ff fe fe fe    	lea    -0x1010101(%rax),%edx
  40915b:	f7 d0                	not    %eax
  40915d:	21 c2                	and    %eax,%edx
  40915f:	81 e2 80 80 80 80    	and    $0x80808080,%edx
  409165:	74 e7                	je     40914e <Redisplay+0x30e>
  409167:	89 d0                	mov    %edx,%eax
  409169:	8b 0d 5d 4d 20 00    	mov    0x204d5d(%rip),%ecx        # 60decc <font_width>
  40916f:	48 8b b3 a8 00 00 00 	mov    0xa8(%rbx),%rsi
  409176:	c1 e8 10             	shr    $0x10,%eax
  409179:	f7 c2 80 80 00 00    	test   $0x8080,%edx
  40917f:	49 89 e9             	mov    %rbp,%r9
  409182:	0f 44 d0             	cmove  %eax,%edx
  409185:	49 8d 40 02          	lea    0x2(%r8),%rax
  409189:	4c 0f 44 c0          	cmove  %rax,%r8
  40918d:	00 d2                	add    %dl,%dl
  40918f:	48 8b 83 98 00 00 00 	mov    0x98(%rbx),%rax
  409196:	49 83 d8 03          	sbb    $0x3,%r8
  40919a:	01 c9                	add    %ecx,%ecx
  40919c:	03 0d 26 4d 20 00    	add    0x204d26(%rip),%ecx        # 60dec8 <vlpos>
  4091a2:	49 29 e8             	sub    %rbp,%r8
  4091a5:	48 8b 93 88 01 00 00 	mov    0x188(%rbx),%rdx
  4091ac:	48 8b 78 08          	mov    0x8(%rax),%rdi
  4091b0:	44 89 04 24          	mov    %r8d,(%rsp)
  4091b4:	44 8b 05 15 4d 20 00 	mov    0x204d15(%rip),%r8d        # 60ded0 <font_height>
  4091bb:	45 01 c0             	add    %r8d,%r8d
  4091be:	e8 75 8b ff ff       	callq  401d38 <XDrawString@plt>
  4091c3:	66 c7 44 24 10 5b 00 	movw   $0x5b,0x10(%rsp)
  4091ca:	48 89 e9             	mov    %rbp,%rcx
  4091cd:	8b 01                	mov    (%rcx),%eax
  4091cf:	48 83 c1 04          	add    $0x4,%rcx
  4091d3:	8d 90 ff fe fe fe    	lea    -0x1010101(%rax),%edx
  4091d9:	f7 d0                	not    %eax
  4091db:	21 c2                	and    %eax,%edx
  4091dd:	81 e2 80 80 80 80    	and    $0x80808080,%edx
  4091e3:	74 e8                	je     4091cd <Redisplay+0x38d>
  4091e5:	89 d0                	mov    %edx,%eax
  4091e7:	44 8b 05 e2 4c 20 00 	mov    0x204ce2(%rip),%r8d        # 60ded0 <font_height>
  4091ee:	48 8b b3 a8 00 00 00 	mov    0xa8(%rbx),%rsi
  4091f5:	c1 e8 10             	shr    $0x10,%eax
  4091f8:	f7 c2 80 80 00 00    	test   $0x8080,%edx
  4091fe:	49 89 e9             	mov    %rbp,%r9
  409201:	0f 44 d0             	cmove  %eax,%edx
  409204:	48 8d 41 02          	lea    0x2(%rcx),%rax
  409208:	48 0f 44 c8          	cmove  %rax,%rcx
  40920c:	00 d2                	add    %dl,%dl
  40920e:	48 8b 83 98 00 00 00 	mov    0x98(%rbx),%rax
  409215:	48 83 d9 03          	sbb    $0x3,%rcx
  409219:	48 8b 93 88 01 00 00 	mov    0x188(%rbx),%rdx
  409220:	41 c1 e0 02          	shl    $0x2,%r8d
  409224:	48 29 e9             	sub    %rbp,%rcx
  409227:	48 8b 78 08          	mov    0x8(%rax),%rdi
  40922b:	89 0c 24             	mov    %ecx,(%rsp)
  40922e:	8b 0d 94 4c 20 00    	mov    0x204c94(%rip),%ecx        # 60dec8 <vlpos>
  409234:	e8 ff 8a ff ff       	callq  401d38 <XDrawString@plt>
  409239:	66 c7 44 24 10 5d 00 	movw   $0x5d,0x10(%rsp)
  409240:	49 89 e8             	mov    %rbp,%r8
  409243:	41 8b 00             	mov    (%r8),%eax
  409246:	49 83 c0 04          	add    $0x4,%r8
  40924a:	8d 90 ff fe fe fe    	lea    -0x1010101(%rax),%edx
  409250:	f7 d0                	not    %eax
  409252:	21 c2                	and    %eax,%edx
  409254:	81 e2 80 80 80 80    	and    $0x80808080,%edx
  40925a:	74 e7                	je     409243 <Redisplay+0x403>
  40925c:	89 d0                	mov    %edx,%eax
  40925e:	48 8b b3 a8 00 00 00 	mov    0xa8(%rbx),%rsi
  409265:	49 89 e9             	mov    %rbp,%r9
  409268:	c1 e8 10             	shr    $0x10,%eax
  40926b:	f7 c2 80 80 00 00    	test   $0x8080,%edx
  409271:	0f 44 d0             	cmove  %eax,%edx
  409274:	49 8d 40 02          	lea    0x2(%r8),%rax
  409278:	4c 0f 44 c0          	cmove  %rax,%r8
  40927c:	8b 05 4a 4c 20 00    	mov    0x204c4a(%rip),%eax        # 60decc <font_width>
  409282:	00 d2                	add    %dl,%dl
  409284:	49 83 d8 03          	sbb    $0x3,%r8
  409288:	48 8b 93 88 01 00 00 	mov    0x188(%rbx),%rdx
  40928f:	49 29 e8             	sub    %rbp,%r8
  409292:	8d 0c 40             	lea    (%rax,%rax,2),%ecx
  409295:	8d 0c 88             	lea    (%rax,%rcx,4),%ecx
  409298:	48 8b 83 98 00 00 00 	mov    0x98(%rbx),%rax
  40929f:	03 0d 23 4c 20 00    	add    0x204c23(%rip),%ecx        # 60dec8 <vlpos>
  4092a5:	48 8b 78 08          	mov    0x8(%rax),%rdi
  4092a9:	44 89 04 24          	mov    %r8d,(%rsp)
  4092ad:	44 8b 05 1c 4c 20 00 	mov    0x204c1c(%rip),%r8d        # 60ded0 <font_height>
  4092b4:	41 c1 e0 02          	shl    $0x2,%r8d
  4092b8:	e8 7b 8a ff ff       	callq  401d38 <XDrawString@plt>
  4092bd:	e9 fe fb ff ff       	jmpq   408ec0 <Redisplay+0x80>
  4092c2:	48 8b 83 98 00 00 00 	mov    0x98(%rbx),%rax
  4092c9:	48 8b b3 88 01 00 00 	mov    0x188(%rbx),%rsi
  4092d0:	45 31 c9             	xor    %r9d,%r9d
  4092d3:	45 31 c0             	xor    %r8d,%r8d
  4092d6:	31 c9                	xor    %ecx,%ecx
  4092d8:	ba 02 00 00 00       	mov    $0x2,%edx
  4092dd:	48 8b 78 08          	mov    0x8(%rax),%rdi
  4092e1:	e8 62 8d ff ff       	callq  402048 <XSetLineAttributes@plt>
  4092e6:	48 8b 83 98 00 00 00 	mov    0x98(%rbx),%rax
  4092ed:	44 0f b7 93 60 01 00 	movzwl 0x160(%rbx),%r10d
  4092f4:	00 
  4092f5:	44 0f b7 8b 64 01 00 	movzwl 0x164(%rbx),%r9d
  4092fc:	00 
  4092fd:	44 0f bf 83 72 01 00 	movswl 0x172(%rbx),%r8d
  409304:	00 
  409305:	0f bf 8b 70 01 00 00 	movswl 0x170(%rbx),%ecx
  40930c:	48 8b 93 88 01 00 00 	mov    0x188(%rbx),%rdx
  409313:	48 8b 78 08          	mov    0x8(%rax),%rdi
  409317:	0f b7 83 62 01 00 00 	movzwl 0x162(%rbx),%eax
  40931e:	48 8b b3 a8 00 00 00 	mov    0xa8(%rbx),%rsi
  409325:	47 8d 4c 0a 01       	lea    0x1(%r10,%r9,1),%r9d
  40932a:	41 83 e8 01          	sub    $0x1,%r8d
  40932e:	83 e9 01             	sub    $0x1,%ecx
  409331:	83 c0 01             	add    $0x1,%eax
  409334:	89 04 24             	mov    %eax,(%rsp)
  409337:	e8 ac 8c ff ff       	callq  401fe8 <XDrawRectangle@plt>
  40933c:	48 8b 83 98 00 00 00 	mov    0x98(%rbx),%rax
  409343:	48 8b b3 88 01 00 00 	mov    0x188(%rbx),%rsi
  40934a:	45 31 c9             	xor    %r9d,%r9d
  40934d:	45 31 c0             	xor    %r8d,%r8d
  409350:	31 c9                	xor    %ecx,%ecx
  409352:	ba 01 00 00 00       	mov    $0x1,%edx
  409357:	48 8b 78 08          	mov    0x8(%rax),%rdi
  40935b:	e8 e8 8c ff ff       	callq  402048 <XSetLineAttributes@plt>
  409360:	80 bb 68 01 00 00 01 	cmpb   $0x1,0x168(%rbx)
  409367:	0f 84 5c 03 00 00    	je     4096c9 <Redisplay+0x889>
  40936d:	4c 8d a4 24 90 00 00 	lea    0x90(%rsp),%r12
  409374:	00 
  409375:	f2 0f 10 83 40 01 00 	movsd  0x140(%rbx),%xmm0
  40937c:	00 
  40937d:	be 9f a1 40 00       	mov    $0x40a19f,%esi
  409382:	b8 01 00 00 00       	mov    $0x1,%eax
  409387:	4c 89 e7             	mov    %r12,%rdi
  40938a:	e8 09 8c ff ff       	callq  401f98 <sprintf@plt>
  40938f:	c7 44 24 10 20 5d 20 	movl   $0x20205d20,0x10(%rsp)
  409396:	20 
  409397:	c6 44 24 14 00       	movb   $0x0,0x14(%rsp)
  40939c:	4c 89 e1             	mov    %r12,%rcx
  40939f:	8b 01                	mov    (%rcx),%eax
  4093a1:	48 83 c1 04          	add    $0x4,%rcx
  4093a5:	8d 90 ff fe fe fe    	lea    -0x1010101(%rax),%edx
  4093ab:	f7 d0                	not    %eax
  4093ad:	21 c2                	and    %eax,%edx
  4093af:	81 e2 80 80 80 80    	and    $0x80808080,%edx
  4093b5:	74 e8                	je     40939f <Redisplay+0x55f>
  4093b7:	89 d0                	mov    %edx,%eax
  4093b9:	48 8d 6c 24 10       	lea    0x10(%rsp),%rbp
  4093be:	c1 e8 10             	shr    $0x10,%eax
  4093c1:	f7 c2 80 80 00 00    	test   $0x8080,%edx
  4093c7:	0f 44 d0             	cmove  %eax,%edx
  4093ca:	48 8d 41 02          	lea    0x2(%rcx),%rax
  4093ce:	48 0f 44 c8          	cmove  %rax,%rcx
  4093d2:	00 d2                	add    %dl,%dl
  4093d4:	48 83 d9 03          	sbb    $0x3,%rcx
  4093d8:	4c 29 e1             	sub    %r12,%rcx
  4093db:	48 83 f9 0a          	cmp    $0xa,%rcx
  4093df:	0f 87 97 00 00 00    	ja     40947c <Redisplay+0x63c>
  4093e5:	31 f6                	xor    %esi,%esi
  4093e7:	41 b8 07 00 00 00    	mov    $0x7,%r8d
  4093ed:	eb 40                	jmp    40942f <Redisplay+0x5ef>
  4093ef:	90                   	nop
  4093f0:	48 89 e9             	mov    %rbp,%rcx
  4093f3:	8b 01                	mov    (%rcx),%eax
  4093f5:	48 83 c1 04          	add    $0x4,%rcx
  4093f9:	8d 90 ff fe fe fe    	lea    -0x1010101(%rax),%edx
  4093ff:	f7 d0                	not    %eax
  409401:	21 c2                	and    %eax,%edx
  409403:	81 e2 80 80 80 80    	and    $0x80808080,%edx
  409409:	74 e8                	je     4093f3 <Redisplay+0x5b3>
  40940b:	89 d0                	mov    %edx,%eax
  40940d:	48 89 fe             	mov    %rdi,%rsi
  409410:	c1 e8 10             	shr    $0x10,%eax
  409413:	f7 c2 80 80 00 00    	test   $0x8080,%edx
  409419:	0f 44 d0             	cmove  %eax,%edx
  40941c:	48 8d 41 02          	lea    0x2(%rcx),%rax
  409420:	48 0f 44 c8          	cmove  %rax,%rcx
  409424:	00 d2                	add    %dl,%dl
  409426:	48 83 d9 03          	sbb    $0x3,%rcx
  40942a:	66 c7 01 20 00       	movw   $0x20,(%rcx)
  40942f:	4c 89 e1             	mov    %r12,%rcx
  409432:	8b 01                	mov    (%rcx),%eax
  409434:	48 83 c1 04          	add    $0x4,%rcx
  409438:	8d 90 ff fe fe fe    	lea    -0x1010101(%rax),%edx
  40943e:	f7 d0                	not    %eax
  409440:	21 c2                	and    %eax,%edx
  409442:	81 e2 80 80 80 80    	and    $0x80808080,%edx
  409448:	74 e8                	je     409432 <Redisplay+0x5f2>
  40944a:	89 d0                	mov    %edx,%eax
  40944c:	48 8d 7e 01          	lea    0x1(%rsi),%rdi
  409450:	c1 e8 10             	shr    $0x10,%eax
  409453:	f7 c2 80 80 00 00    	test   $0x8080,%edx
  409459:	0f 44 d0             	cmove  %eax,%edx
  40945c:	48 8d 41 02          	lea    0x2(%rcx),%rax
  409460:	48 0f 44 c8          	cmove  %rax,%rcx
  409464:	00 d2                	add    %dl,%dl
  409466:	4c 89 c0             	mov    %r8,%rax
  409469:	48 83 d9 03          	sbb    $0x3,%rcx
  40946d:	4c 29 e1             	sub    %r12,%rcx
  409470:	48 29 c8             	sub    %rcx,%rax
  409473:	48 39 c6             	cmp    %rax,%rsi
  409476:	0f 82 74 ff ff ff    	jb     4093f0 <Redisplay+0x5b0>
  40947c:	4c 89 e6             	mov    %r12,%rsi
  40947f:	48 89 ef             	mov    %rbp,%rdi
  409482:	e8 f1 8b ff ff       	callq  402078 <strcat@plt>
  409487:	48 8b 83 98 00 00 00 	mov    0x98(%rbx),%rax
  40948e:	0f bf 8b 70 01 00 00 	movswl 0x170(%rbx),%ecx
  409495:	49 89 e9             	mov    %rbp,%r9
  409498:	48 8b 93 88 01 00 00 	mov    0x188(%rbx),%rdx
  40949f:	48 8b b3 a8 00 00 00 	mov    0xa8(%rbx),%rsi
  4094a6:	44 8b 05 17 4a 20 00 	mov    0x204a17(%rip),%r8d        # 60dec4 <hlpos>
  4094ad:	48 8b 78 08          	mov    0x8(%rax),%rdi
  4094b1:	c7 04 24 0b 00 00 00 	movl   $0xb,(%rsp)
  4094b8:	83 e9 5a             	sub    $0x5a,%ecx
  4094bb:	e8 78 88 ff ff       	callq  401d38 <XDrawString@plt>
  4094c0:	80 bb 68 01 00 00 01 	cmpb   $0x1,0x168(%rbx)
  4094c7:	0f 84 24 02 00 00    	je     4096f1 <Redisplay+0x8b1>
  4094cd:	f2 0f 10 83 48 01 00 	movsd  0x148(%rbx),%xmm0
  4094d4:	00 
  4094d5:	be 9f a1 40 00       	mov    $0x40a19f,%esi
  4094da:	4c 89 e7             	mov    %r12,%rdi
  4094dd:	b8 01 00 00 00       	mov    $0x1,%eax
  4094e2:	e8 b1 8a ff ff       	callq  401f98 <sprintf@plt>
  4094e7:	c6 44 24 10 00       	movb   $0x0,0x10(%rsp)
  4094ec:	4c 89 e1             	mov    %r12,%rcx
  4094ef:	8b 01                	mov    (%rcx),%eax
  4094f1:	48 83 c1 04          	add    $0x4,%rcx
  4094f5:	8d 90 ff fe fe fe    	lea    -0x1010101(%rax),%edx
  4094fb:	f7 d0                	not    %eax
  4094fd:	21 c2                	and    %eax,%edx
  4094ff:	81 e2 80 80 80 80    	and    $0x80808080,%edx
  409505:	74 e8                	je     4094ef <Redisplay+0x6af>
  409507:	89 d0                	mov    %edx,%eax
  409509:	41 b8 07 00 00 00    	mov    $0x7,%r8d
  40950f:	c1 e8 10             	shr    $0x10,%eax
  409512:	f7 c2 80 80 00 00    	test   $0x8080,%edx
  409518:	0f 44 d0             	cmove  %eax,%edx
  40951b:	48 8d 41 02          	lea    0x2(%rcx),%rax
  40951f:	48 0f 44 c8          	cmove  %rax,%rcx
  409523:	00 d2                	add    %dl,%dl
  409525:	48 83 d9 03          	sbb    $0x3,%rcx
  409529:	31 f6                	xor    %esi,%esi
  40952b:	4c 29 e1             	sub    %r12,%rcx
  40952e:	48 83 f9 06          	cmp    $0x6,%rcx
  409532:	0f 86 17 01 00 00    	jbe    40964f <Redisplay+0x80f>
  409538:	4c 89 e6             	mov    %r12,%rsi
  40953b:	48 89 ef             	mov    %rbp,%rdi
  40953e:	e8 35 8b ff ff       	callq  402078 <strcat@plt>
  409543:	0f b7 83 60 01 00 00 	movzwl 0x160(%rbx),%eax
  40954a:	0f bf 8b 70 01 00 00 	movswl 0x170(%rbx),%ecx
  409551:	49 89 e9             	mov    %rbp,%r9
  409554:	48 8b 93 88 01 00 00 	mov    0x188(%rbx),%rdx
  40955b:	48 8b b3 a8 00 00 00 	mov    0xa8(%rbx),%rsi
  409562:	44 8b 05 5b 49 20 00 	mov    0x20495b(%rip),%r8d        # 60dec4 <hlpos>
  409569:	8d 4c 01 0a          	lea    0xa(%rcx,%rax,1),%ecx
  40956d:	48 8b 83 98 00 00 00 	mov    0x98(%rbx),%rax
  409574:	48 8b 78 08          	mov    0x8(%rax),%rdi
  409578:	c7 04 24 07 00 00 00 	movl   $0x7,(%rsp)
  40957f:	e8 b4 87 ff ff       	callq  401d38 <XDrawString@plt>
  409584:	48 8b 93 28 01 00 00 	mov    0x128(%rbx),%rdx
  40958b:	be ad a1 40 00       	mov    $0x40a1ad,%esi
  409590:	48 89 ef             	mov    %rbp,%rdi
  409593:	31 c0                	xor    %eax,%eax
  409595:	e8 fe 89 ff ff       	callq  401f98 <sprintf@plt>
  40959a:	48 89 e9             	mov    %rbp,%rcx
  40959d:	8b 01                	mov    (%rcx),%eax
  40959f:	48 83 c1 04          	add    $0x4,%rcx
  4095a3:	8d 90 ff fe fe fe    	lea    -0x1010101(%rax),%edx
  4095a9:	f7 d0                	not    %eax
  4095ab:	21 c2                	and    %eax,%edx
  4095ad:	81 e2 80 80 80 80    	and    $0x80808080,%edx
  4095b3:	74 e8                	je     40959d <Redisplay+0x75d>
  4095b5:	89 d0                	mov    %edx,%eax
  4095b7:	48 8b b3 a8 00 00 00 	mov    0xa8(%rbx),%rsi
  4095be:	44 8b 05 ff 48 20 00 	mov    0x2048ff(%rip),%r8d        # 60dec4 <hlpos>
  4095c5:	c1 e8 10             	shr    $0x10,%eax
  4095c8:	f7 c2 80 80 00 00    	test   $0x8080,%edx
  4095ce:	49 89 e9             	mov    %rbp,%r9
  4095d1:	0f 44 d0             	cmove  %eax,%edx
  4095d4:	48 8d 41 02          	lea    0x2(%rcx),%rax
  4095d8:	48 0f 44 c8          	cmove  %rax,%rcx
  4095dc:	48 8b 83 98 00 00 00 	mov    0x98(%rbx),%rax
  4095e3:	00 d2                	add    %dl,%dl
  4095e5:	48 83 d9 03          	sbb    $0x3,%rcx
  4095e9:	48 8b 93 88 01 00 00 	mov    0x188(%rbx),%rdx
  4095f0:	48 29 e9             	sub    %rbp,%rcx
  4095f3:	48 8b 78 08          	mov    0x8(%rax),%rdi
  4095f7:	89 0c 24             	mov    %ecx,(%rsp)
  4095fa:	b9 0a 00 00 00       	mov    $0xa,%ecx
  4095ff:	e8 34 87 ff ff       	callq  401d38 <XDrawString@plt>
  409604:	e9 b7 f8 ff ff       	jmpq   408ec0 <Redisplay+0x80>
  409609:	0f 1f 80 00 00 00 00 	nopl   0x0(%rax)
  409610:	48 89 e9             	mov    %rbp,%rcx
  409613:	8b 01                	mov    (%rcx),%eax
  409615:	48 83 c1 04          	add    $0x4,%rcx
  409619:	8d 90 ff fe fe fe    	lea    -0x1010101(%rax),%edx
  40961f:	f7 d0                	not    %eax
  409621:	21 c2                	and    %eax,%edx
  409623:	81 e2 80 80 80 80    	and    $0x80808080,%edx
  409629:	74 e8                	je     409613 <Redisplay+0x7d3>
  40962b:	89 d0                	mov    %edx,%eax
  40962d:	48 89 fe             	mov    %rdi,%rsi
  409630:	c1 e8 10             	shr    $0x10,%eax
  409633:	f7 c2 80 80 00 00    	test   $0x8080,%edx
  409639:	0f 44 d0             	cmove  %eax,%edx
  40963c:	48 8d 41 02          	lea    0x2(%rcx),%rax
  409640:	48 0f 44 c8          	cmove  %rax,%rcx
  409644:	00 d2                	add    %dl,%dl
  409646:	48 83 d9 03          	sbb    $0x3,%rcx
  40964a:	66 c7 01 20 00       	movw   $0x20,(%rcx)
  40964f:	4c 89 e1             	mov    %r12,%rcx
  409652:	8b 01                	mov    (%rcx),%eax
  409654:	48 83 c1 04          	add    $0x4,%rcx
  409658:	8d 90 ff fe fe fe    	lea    -0x1010101(%rax),%edx
  40965e:	f7 d0                	not    %eax
  409660:	21 c2                	and    %eax,%edx
  409662:	81 e2 80 80 80 80    	and    $0x80808080,%edx
  409668:	74 e8                	je     409652 <Redisplay+0x812>
  40966a:	89 d0                	mov    %edx,%eax
  40966c:	48 8d 7e 01          	lea    0x1(%rsi),%rdi
  409670:	c1 e8 10             	shr    $0x10,%eax
  409673:	f7 c2 80 80 00 00    	test   $0x8080,%edx
  409679:	0f 44 d0             	cmove  %eax,%edx
  40967c:	48 8d 41 02          	lea    0x2(%rcx),%rax
  409680:	48 0f 44 c8          	cmove  %rax,%rcx
  409684:	00 d2                	add    %dl,%dl
  409686:	4c 89 c0             	mov    %r8,%rax
  409689:	48 83 d9 03          	sbb    $0x3,%rcx
  40968d:	4c 29 e1             	sub    %r12,%rcx
  409690:	48 29 c8             	sub    %rcx,%rax
  409693:	48 39 c6             	cmp    %rax,%rsi
  409696:	0f 82 74 ff ff ff    	jb     409610 <Redisplay+0x7d0>
  40969c:	e9 97 fe ff ff       	jmpq   409538 <Redisplay+0x6f8>
  4096a1:	f2 0f 10 8b 40 01 00 	movsd  0x140(%rbx),%xmm1
  4096a8:	00 
  4096a9:	4c 8d a4 24 90 00 00 	lea    0x90(%rsp),%r12
  4096b0:	00 
  4096b1:	be a9 a1 40 00       	mov    $0x40a1a9,%esi
  4096b6:	31 c0                	xor    %eax,%eax
  4096b8:	f2 0f 2c d1          	cvttsd2si %xmm1,%edx
  4096bc:	4c 89 e7             	mov    %r12,%rdi
  4096bf:	e8 d4 88 ff ff       	callq  401f98 <sprintf@plt>
  4096c4:	e9 39 f9 ff ff       	jmpq   409002 <Redisplay+0x1c2>
  4096c9:	f2 0f 10 9b 40 01 00 	movsd  0x140(%rbx),%xmm3
  4096d0:	00 
  4096d1:	4c 8d a4 24 90 00 00 	lea    0x90(%rsp),%r12
  4096d8:	00 
  4096d9:	be a9 a1 40 00       	mov    $0x40a1a9,%esi
  4096de:	31 c0                	xor    %eax,%eax
  4096e0:	f2 0f 2c d3          	cvttsd2si %xmm3,%edx
  4096e4:	4c 89 e7             	mov    %r12,%rdi
  4096e7:	e8 ac 88 ff ff       	callq  401f98 <sprintf@plt>
  4096ec:	e9 9e fc ff ff       	jmpq   40938f <Redisplay+0x54f>
  4096f1:	f2 0f 10 93 48 01 00 	movsd  0x148(%rbx),%xmm2
  4096f8:	00 
  4096f9:	be a9 a1 40 00       	mov    $0x40a1a9,%esi
  4096fe:	4c 89 e7             	mov    %r12,%rdi
  409701:	31 c0                	xor    %eax,%eax
  409703:	f2 0f 2c d2          	cvttsd2si %xmm2,%edx
  409707:	e8 8c 88 ff ff       	callq  401f98 <sprintf@plt>
  40970c:	e9 d6 fd ff ff       	jmpq   4094e7 <Redisplay+0x6a7>
  409711:	f2 0f 10 83 48 01 00 	movsd  0x148(%rbx),%xmm0
  409718:	00 
  409719:	be a9 a1 40 00       	mov    $0x40a1a9,%esi
  40971e:	4c 89 e7             	mov    %r12,%rdi
  409721:	31 c0                	xor    %eax,%eax
  409723:	f2 0f 2c d0          	cvttsd2si %xmm0,%edx
  409727:	e8 6c 88 ff ff       	callq  401f98 <sprintf@plt>
  40972c:	e9 7c f9 ff ff       	jmpq   4090ad <Redisplay+0x26d>
  409731:	0f 1f 80 00 00 00 00 	nopl   0x0(%rax)
  409738:	0f 1f 84 00 00 00 00 	nopl   0x0(%rax,%rax,1)
  40973f:	00 

0000000000409740 <Resize>:
  409740:	53                   	push   %rbx
  409741:	31 c0                	xor    %eax,%eax
  409743:	48 89 fb             	mov    %rdi,%rbx
  409746:	e8 95 e8 ff ff       	callq  407fe0 <SetDimensions>
  40974b:	48 89 df             	mov    %rbx,%rdi
  40974e:	31 d2                	xor    %edx,%edx
  409750:	31 f6                	xor    %esi,%esi
  409752:	5b                   	pop    %rbx
  409753:	31 c0                	xor    %eax,%eax
  409755:	e9 e6 f6 ff ff       	jmpq   408e40 <Redisplay>
  40975a:	66 0f 1f 44 00 00    	nopw   0x0(%rax,%rax,1)

0000000000409760 <Realize>:
  409760:	83 bf e0 00 00 00 01 	cmpl   $0x1,0xe0(%rdi)
  409767:	74 2a                	je     409793 <Realize+0x33>
  409769:	48 8b 87 20 01 00 00 	mov    0x120(%rdi),%rax
  409770:	48 89 87 78 01 00 00 	mov    %rax,0x178(%rdi)
  409777:	48 89 42 68          	mov    %rax,0x68(%rdx)
  40977b:	49 89 d0             	mov    %rdx,%r8
  40977e:	48 8b 0e             	mov    (%rsi),%rcx
  409781:	31 d2                	xor    %edx,%edx
  409783:	80 cd 40             	or     $0x40,%ch
  409786:	48 89 0e             	mov    %rcx,(%rsi)
  409789:	be 01 00 00 00       	mov    $0x1,%esi
  40978e:	e9 05 87 ff ff       	jmpq   401e98 <XtCreateWindow@plt>
  409793:	48 8b 87 18 01 00 00 	mov    0x118(%rdi),%rax
  40979a:	eb d4                	jmp    409770 <Realize+0x10>
  40979c:	0f 1f 40 00          	nopl   0x0(%rax)

00000000004097a0 <ClassInitialize>:
  4097a0:	48 83 ec 08          	sub    $0x8,%rsp
  4097a4:	e8 5f 89 ff ff       	callq  402108 <XawInitializeWidgetSet@plt>
  4097a9:	45 31 c0             	xor    %r8d,%r8d
  4097ac:	31 c9                	xor    %ecx,%ecx
  4097ae:	ba 78 21 40 00       	mov    $0x402178,%edx
  4097b3:	be 7e cc 60 00       	mov    $0x60cc7e,%esi
  4097b8:	bf b5 cc 60 00       	mov    $0x60ccb5,%edi
  4097bd:	e8 76 88 ff ff       	callq  402038 <XtAddConverter@plt>
  4097c2:	41 b8 01 00 00 00    	mov    $0x1,%r8d
  4097c8:	b9 80 ba 60 00       	mov    $0x60ba80,%ecx
  4097cd:	ba e8 1d 40 00       	mov    $0x401de8,%edx
  4097d2:	be 90 cc 60 00       	mov    $0x60cc90,%esi
  4097d7:	bf b5 cc 60 00       	mov    $0x60ccb5,%edi
  4097dc:	48 83 c4 08          	add    $0x8,%rsp
  4097e0:	e9 53 88 ff ff       	jmpq   402038 <XtAddConverter@plt>
  4097e5:	0f 1f 44 00 00       	nopl   0x0(%rax,%rax,1)
  4097ea:	66 0f 1f 44 00 00    	nopw   0x0(%rax,%rax,1)

00000000004097f0 <XkwReconfigureIntSlider>:
  4097f0:	f2 0f 2a c2          	cvtsi2sd %edx,%xmm0
  4097f4:	48 89 5c 24 e0       	mov    %rbx,-0x20(%rsp)
  4097f9:	48 89 6c 24 e8       	mov    %rbp,-0x18(%rsp)
  4097fe:	4c 89 64 24 f0       	mov    %r12,-0x10(%rsp)
  409803:	48 89 fd             	mov    %rdi,%rbp
  409806:	4c 89 6c 24 f8       	mov    %r13,-0x8(%rsp)
  40980b:	48 83 ec 38          	sub    $0x38,%rsp
  40980f:	45 89 c5             	mov    %r8d,%r13d
  409812:	48 89 f3             	mov    %rsi,%rbx
  409815:	31 d2                	xor    %edx,%edx
  409817:	41 89 cc             	mov    %ecx,%r12d
  40981a:	31 c9                	xor    %ecx,%ecx
  40981c:	f2 0f 11 44 24 10    	movsd  %xmm0,0x10(%rsp)
  409822:	48 8b 87 98 00 00 00 	mov    0x98(%rdi),%rax
  409829:	44 0f b7 4f 36       	movzwl 0x36(%rdi),%r9d
  40982e:	44 0f b7 47 34       	movzwl 0x34(%rdi),%r8d
  409833:	48 8b b7 a8 00 00 00 	mov    0xa8(%rdi),%rsi
  40983a:	48 8b 78 08          	mov    0x8(%rax),%rdi
  40983e:	c7 04 24 00 00 00 00 	movl   $0x0,(%rsp)
  409845:	e8 1e 88 ff ff       	callq  402068 <XClearArea@plt>
  40984a:	48 8b bd 28 01 00 00 	mov    0x128(%rbp),%rdi
  409851:	48 89 de             	mov    %rbx,%rsi
  409854:	e8 bf 88 ff ff       	callq  402118 <strcpy@plt>
  409859:	f2 41 0f 2a c4       	cvtsi2sd %r12d,%xmm0
  40985e:	f2 41 0f 2a d5       	cvtsi2sd %r13d,%xmm2
  409863:	f2 0f 11 85 48 01 00 	movsd  %xmm0,0x148(%rbp)
  40986a:	00 
  40986b:	f2 0f 10 4c 24 10    	movsd  0x10(%rsp),%xmm1
  409871:	f2 0f 5c c1          	subsd  %xmm1,%xmm0
  409875:	f2 0f 11 8d 40 01 00 	movsd  %xmm1,0x140(%rbp)
  40987c:	00 
  40987d:	f2 0f 5c d1          	subsd  %xmm1,%xmm2
  409881:	f2 0f 5e d0          	divsd  %xmm0,%xmm2
  409885:	f2 0f 10 05 93 06 00 	movsd  0x693(%rip),%xmm0        # 409f20 <__dso_handle+0x2f8>
  40988c:	00 
  40988d:	66 0f 2e d0          	ucomisd %xmm0,%xmm2
  409891:	76 6d                	jbe    409900 <XkwReconfigureIntSlider+0x110>
  409893:	66 0f 28 d0          	movapd %xmm0,%xmm2
  409897:	f2 0f 10 85 40 01 00 	movsd  0x140(%rbp),%xmm0
  40989e:	00 
  40989f:	48 89 ef             	mov    %rbp,%rdi
  4098a2:	f2 0f 10 8d 48 01 00 	movsd  0x148(%rbp),%xmm1
  4098a9:	00 
  4098aa:	f2 0f 11 95 30 01 00 	movsd  %xmm2,0x130(%rbp)
  4098b1:	00 
  4098b2:	f2 0f 5c c8          	subsd  %xmm0,%xmm1
  4098b6:	f2 0f 59 ca          	mulsd  %xmm2,%xmm1
  4098ba:	f2 0f 58 c8          	addsd  %xmm0,%xmm1
  4098be:	f2 0f 2c c1          	cvttsd2si %xmm1,%eax
  4098c2:	f2 0f 11 8d 50 01 00 	movsd  %xmm1,0x150(%rbp)
  4098c9:	00 
  4098ca:	89 85 6c 01 00 00    	mov    %eax,0x16c(%rbp)
  4098d0:	31 c0                	xor    %eax,%eax
  4098d2:	e8 09 e7 ff ff       	callq  407fe0 <SetDimensions>
  4098d7:	31 c0                	xor    %eax,%eax
  4098d9:	48 89 ef             	mov    %rbp,%rdi
  4098dc:	31 d2                	xor    %edx,%edx
  4098de:	31 f6                	xor    %esi,%esi
  4098e0:	e8 5b f5 ff ff       	callq  408e40 <Redisplay>
  4098e5:	48 8b 5c 24 18       	mov    0x18(%rsp),%rbx
  4098ea:	48 8b 6c 24 20       	mov    0x20(%rsp),%rbp
  4098ef:	4c 8b 64 24 28       	mov    0x28(%rsp),%r12
  4098f4:	4c 8b 6c 24 30       	mov    0x30(%rsp),%r13
  4098f9:	48 83 c4 38          	add    $0x38,%rsp
  4098fd:	c3                   	retq   
  4098fe:	66 90                	xchg   %ax,%ax
  409900:	66 0f 2e 15 b0 05 00 	ucomisd 0x5b0(%rip),%xmm2        # 409eb8 <__dso_handle+0x290>
  409907:	00 
  409908:	73 8d                	jae    409897 <XkwReconfigureIntSlider+0xa7>
  40990a:	f2 0f 10 95 30 01 00 	movsd  0x130(%rbp),%xmm2
  409911:	00 
  409912:	eb 83                	jmp    409897 <XkwReconfigureIntSlider+0xa7>
  409914:	66 0f 1f 44 00 00    	nopw   0x0(%rax,%rax,1)
  40991a:	66 0f 1f 44 00 00    	nopw   0x0(%rax,%rax,1)

0000000000409920 <XkwReconfigureSlider>:
  409920:	55                   	push   %rbp
  409921:	48 89 fd             	mov    %rdi,%rbp
  409924:	31 c9                	xor    %ecx,%ecx
  409926:	31 d2                	xor    %edx,%edx
  409928:	53                   	push   %rbx
  409929:	48 89 f3             	mov    %rsi,%rbx
  40992c:	48 83 ec 28          	sub    $0x28,%rsp
  409930:	f2 0f 11 44 24 20    	movsd  %xmm0,0x20(%rsp)
  409936:	f2 0f 11 54 24 10    	movsd  %xmm2,0x10(%rsp)
  40993c:	f2 0f 11 4c 24 18    	movsd  %xmm1,0x18(%rsp)
  409942:	48 8b 87 98 00 00 00 	mov    0x98(%rdi),%rax
  409949:	44 0f b7 4f 36       	movzwl 0x36(%rdi),%r9d
  40994e:	44 0f b7 47 34       	movzwl 0x34(%rdi),%r8d
  409953:	48 8b b7 a8 00 00 00 	mov    0xa8(%rdi),%rsi
  40995a:	48 8b 78 08          	mov    0x8(%rax),%rdi
  40995e:	c7 04 24 00 00 00 00 	movl   $0x0,(%rsp)
  409965:	e8 fe 86 ff ff       	callq  402068 <XClearArea@plt>
  40996a:	48 8b bd 28 01 00 00 	mov    0x128(%rbp),%rdi
  409971:	48 89 de             	mov    %rbx,%rsi
  409974:	e8 9f 87 ff ff       	callq  402118 <strcpy@plt>
  409979:	f2 0f 10 44 24 18    	movsd  0x18(%rsp),%xmm0
  40997f:	f2 0f 11 85 48 01 00 	movsd  %xmm0,0x148(%rbp)
  409986:	00 
  409987:	f2 0f 10 44 24 20    	movsd  0x20(%rsp),%xmm0
  40998d:	f2 0f 11 85 40 01 00 	movsd  %xmm0,0x140(%rbp)
  409994:	00 
  409995:	f2 0f 10 54 24 10    	movsd  0x10(%rsp),%xmm2
  40999b:	f2 0f 5c d0          	subsd  %xmm0,%xmm2
  40999f:	f2 0f 10 44 24 18    	movsd  0x18(%rsp),%xmm0
  4099a5:	f2 0f 5c 44 24 20    	subsd  0x20(%rsp),%xmm0
  4099ab:	f2 0f 5e d0          	divsd  %xmm0,%xmm2
  4099af:	f2 0f 10 05 69 05 00 	movsd  0x569(%rip),%xmm0        # 409f20 <__dso_handle+0x2f8>
  4099b6:	00 
  4099b7:	66 0f 2e d0          	ucomisd %xmm0,%xmm2
  4099bb:	76 59                	jbe    409a16 <XkwReconfigureSlider+0xf6>
  4099bd:	66 0f 28 d0          	movapd %xmm0,%xmm2
  4099c1:	f2 0f 10 85 40 01 00 	movsd  0x140(%rbp),%xmm0
  4099c8:	00 
  4099c9:	48 89 ef             	mov    %rbp,%rdi
  4099cc:	f2 0f 10 8d 48 01 00 	movsd  0x148(%rbp),%xmm1
  4099d3:	00 
  4099d4:	f2 0f 11 95 30 01 00 	movsd  %xmm2,0x130(%rbp)
  4099db:	00 
  4099dc:	f2 0f 5c c8          	subsd  %xmm0,%xmm1
  4099e0:	f2 0f 59 ca          	mulsd  %xmm2,%xmm1
  4099e4:	f2 0f 58 c8          	addsd  %xmm0,%xmm1
  4099e8:	f2 0f 2c c1          	cvttsd2si %xmm1,%eax
  4099ec:	f2 0f 11 8d 50 01 00 	movsd  %xmm1,0x150(%rbp)
  4099f3:	00 
  4099f4:	89 85 6c 01 00 00    	mov    %eax,0x16c(%rbp)
  4099fa:	31 c0                	xor    %eax,%eax
  4099fc:	e8 df e5 ff ff       	callq  407fe0 <SetDimensions>
  409a01:	31 c0                	xor    %eax,%eax
  409a03:	48 89 ef             	mov    %rbp,%rdi
  409a06:	31 d2                	xor    %edx,%edx
  409a08:	31 f6                	xor    %esi,%esi
  409a0a:	e8 31 f4 ff ff       	callq  408e40 <Redisplay>
  409a0f:	48 83 c4 28          	add    $0x28,%rsp
  409a13:	5b                   	pop    %rbx
  409a14:	5d                   	pop    %rbp
  409a15:	c3                   	retq   
  409a16:	66 0f 2e 15 9a 04 00 	ucomisd 0x49a(%rip),%xmm2        # 409eb8 <__dso_handle+0x290>
  409a1d:	00 
  409a1e:	73 a1                	jae    4099c1 <XkwReconfigureSlider+0xa1>
  409a20:	f2 0f 10 95 30 01 00 	movsd  0x130(%rbp),%xmm2
  409a27:	00 
  409a28:	eb 97                	jmp    4099c1 <XkwReconfigureSlider+0xa1>
  409a2a:	90                   	nop
  409a2b:	90                   	nop
  409a2c:	90                   	nop
  409a2d:	90                   	nop
  409a2e:	90                   	nop
  409a2f:	90                   	nop

0000000000409a30 <Resize>:
  409a30:	f3 c3                	repz retq 
  409a32:	0f 1f 80 00 00 00 00 	nopl   0x0(%rax)
  409a39:	0f 1f 80 00 00 00 00 	nopl   0x0(%rax)

0000000000409a40 <Redisplay>:
  409a40:	f3 c3                	repz retq 
  409a42:	0f 1f 80 00 00 00 00 	nopl   0x0(%rax)
  409a49:	0f 1f 80 00 00 00 00 	nopl   0x0(%rax)

0000000000409a50 <SetValues>:
  409a50:	f3 c3                	repz retq 
  409a52:	0f 1f 80 00 00 00 00 	nopl   0x0(%rax)
  409a59:	0f 1f 80 00 00 00 00 	nopl   0x0(%rax)

0000000000409a60 <Notify>:
  409a60:	48 89 f0             	mov    %rsi,%rax
  409a63:	48 8b b7 f0 00 00 00 	mov    0xf0(%rdi),%rsi
  409a6a:	48 89 c2             	mov    %rax,%rdx
  409a6d:	e9 56 84 ff ff       	jmpq   401ec8 <XtCallCallbackList@plt>
  409a72:	0f 1f 80 00 00 00 00 	nopl   0x0(%rax)
  409a79:	0f 1f 80 00 00 00 00 	nopl   0x0(%rax)

0000000000409a80 <Destroy>:
  409a80:	48 8b bf e0 00 00 00 	mov    0xe0(%rdi),%rdi
  409a87:	e9 5c 86 ff ff       	jmpq   4020e8 <XtDestroyGC@plt>
  409a8c:	0f 1f 40 00          	nopl   0x0(%rax)

0000000000409a90 <Realize>:
  409a90:	8b 87 e8 00 00 00    	mov    0xe8(%rdi),%eax
  409a96:	83 f8 03             	cmp    $0x3,%eax
  409a99:	74 07                	je     409aa2 <Realize+0x12>
  409a9b:	89 42 28             	mov    %eax,0x28(%rdx)
  409a9e:	48 83 0e 40          	orq    $0x40,(%rsi)
  409aa2:	48 8b 87 f8 00 00 00 	mov    0xf8(%rdi),%rax
  409aa9:	49 89 d0             	mov    %rdx,%r8
  409aac:	48 89 42 68          	mov    %rax,0x68(%rdx)
  409ab0:	48 8b 0e             	mov    (%rsi),%rcx
  409ab3:	31 d2                	xor    %edx,%edx
  409ab5:	80 cd 40             	or     $0x40,%ch
  409ab8:	48 89 0e             	mov    %rcx,(%rsi)
  409abb:	be 01 00 00 00       	mov    $0x1,%esi
  409ac0:	e9 d3 83 ff ff       	jmpq   401e98 <XtCreateWindow@plt>
  409ac5:	0f 1f 44 00 00       	nopl   0x0(%rax,%rax,1)
  409aca:	66 0f 1f 44 00 00    	nopw   0x0(%rax,%rax,1)

0000000000409ad0 <Initialize>:
  409ad0:	53                   	push   %rbx
  409ad1:	48 89 f3             	mov    %rsi,%rbx
  409ad4:	48 89 df             	mov    %rbx,%rdi
  409ad7:	48 83 c4 80          	add    $0xffffffffffffff80,%rsp
  409adb:	48 8b 86 d0 00 00 00 	mov    0xd0(%rsi),%rax
  409ae2:	48 89 e2             	mov    %rsp,%rdx
  409ae5:	48 89 44 24 10       	mov    %rax,0x10(%rsp)
  409aea:	48 8b 86 b8 00 00 00 	mov    0xb8(%rsi),%rax
  409af1:	be 0c 00 00 00       	mov    $0xc,%esi
  409af6:	48 89 44 24 18       	mov    %rax,0x18(%rsp)
  409afb:	e8 f8 86 ff ff       	callq  4021f8 <XtGetGC@plt>
  409b00:	48 89 83 e0 00 00 00 	mov    %rax,0xe0(%rbx)
  409b07:	48 83 ec 80          	sub    $0xffffffffffffff80,%rsp
  409b0b:	5b                   	pop    %rbx
  409b0c:	c3                   	retq   
  409b0d:	0f 1f 00             	nopl   (%rax)

0000000000409b10 <ClassInitialize>:
  409b10:	45 31 c0             	xor    %r8d,%r8d
  409b13:	31 c9                	xor    %ecx,%ecx
  409b15:	ba 88 20 40 00       	mov    $0x402088,%edx
  409b1a:	be 08 a3 40 00       	mov    $0x40a308,%esi
  409b1f:	bf b5 cc 60 00       	mov    $0x60ccb5,%edi
  409b24:	e9 0f 85 ff ff       	jmpq   402038 <XtAddConverter@plt>
  409b29:	90                   	nop
  409b2a:	90                   	nop
  409b2b:	90                   	nop
  409b2c:	90                   	nop
  409b2d:	90                   	nop
  409b2e:	90                   	nop
  409b2f:	90                   	nop

0000000000409b30 <__libc_csu_fini>:
  409b30:	f3 c3                	repz retq 
  409b32:	0f 1f 80 00 00 00 00 	nopl   0x0(%rax)
  409b39:	0f 1f 80 00 00 00 00 	nopl   0x0(%rax)

0000000000409b40 <__libc_csu_init>:
  409b40:	4c 89 64 24 e0       	mov    %r12,-0x20(%rsp)
  409b45:	4c 89 6c 24 e8       	mov    %r13,-0x18(%rsp)
  409b4a:	4c 8d 25 33 18 20 00 	lea    0x201833(%rip),%r12        # 60b384 <__fini_array_end>
  409b51:	4c 89 74 24 f0       	mov    %r14,-0x10(%rsp)
  409b56:	4c 89 7c 24 f8       	mov    %r15,-0x8(%rsp)
  409b5b:	49 89 f6             	mov    %rsi,%r14
  409b5e:	48 89 5c 24 d0       	mov    %rbx,-0x30(%rsp)
  409b63:	48 89 6c 24 d8       	mov    %rbp,-0x28(%rsp)
  409b68:	48 83 ec 38          	sub    $0x38,%rsp
  409b6c:	41 89 ff             	mov    %edi,%r15d
  409b6f:	49 89 d5             	mov    %rdx,%r13
  409b72:	e8 89 81 ff ff       	callq  401d00 <_init>
  409b77:	48 8d 05 06 18 20 00 	lea    0x201806(%rip),%rax        # 60b384 <__fini_array_end>
  409b7e:	49 29 c4             	sub    %rax,%r12
  409b81:	49 c1 fc 03          	sar    $0x3,%r12
  409b85:	4d 85 e4             	test   %r12,%r12
  409b88:	74 1e                	je     409ba8 <__libc_csu_init+0x68>
  409b8a:	31 ed                	xor    %ebp,%ebp
  409b8c:	48 89 c3             	mov    %rax,%rbx
  409b8f:	90                   	nop
  409b90:	48 83 c5 01          	add    $0x1,%rbp
  409b94:	4c 89 ea             	mov    %r13,%rdx
  409b97:	4c 89 f6             	mov    %r14,%rsi
  409b9a:	44 89 ff             	mov    %r15d,%edi
  409b9d:	ff 13                	callq  *(%rbx)
  409b9f:	48 83 c3 08          	add    $0x8,%rbx
  409ba3:	49 39 ec             	cmp    %rbp,%r12
  409ba6:	75 e8                	jne    409b90 <__libc_csu_init+0x50>
  409ba8:	48 8b 5c 24 08       	mov    0x8(%rsp),%rbx
  409bad:	48 8b 6c 24 10       	mov    0x10(%rsp),%rbp
  409bb2:	4c 8b 64 24 18       	mov    0x18(%rsp),%r12
  409bb7:	4c 8b 6c 24 20       	mov    0x20(%rsp),%r13
  409bbc:	4c 8b 74 24 28       	mov    0x28(%rsp),%r14
  409bc1:	4c 8b 7c 24 30       	mov    0x30(%rsp),%r15
  409bc6:	48 83 c4 38          	add    $0x38,%rsp
  409bca:	c3                   	retq   
  409bcb:	90                   	nop
  409bcc:	90                   	nop
  409bcd:	90                   	nop
  409bce:	90                   	nop
  409bcf:	90                   	nop

0000000000409bd0 <__do_global_ctors_aux>:
  409bd0:	55                   	push   %rbp
  409bd1:	48 89 e5             	mov    %rsp,%rbp
  409bd4:	53                   	push   %rbx
  409bd5:	bb 88 b3 60 00       	mov    $0x60b388,%ebx
  409bda:	48 83 ec 08          	sub    $0x8,%rsp
  409bde:	48 8b 05 a3 17 20 00 	mov    0x2017a3(%rip),%rax        # 60b388 <__CTOR_LIST__>
  409be5:	48 83 f8 ff          	cmp    $0xffffffffffffffff,%rax
  409be9:	74 14                	je     409bff <__do_global_ctors_aux+0x2f>
  409beb:	0f 1f 44 00 00       	nopl   0x0(%rax,%rax,1)
  409bf0:	48 83 eb 08          	sub    $0x8,%rbx
  409bf4:	ff d0                	callq  *%rax
  409bf6:	48 8b 03             	mov    (%rbx),%rax
  409bf9:	48 83 f8 ff          	cmp    $0xffffffffffffffff,%rax
  409bfd:	75 f1                	jne    409bf0 <__do_global_ctors_aux+0x20>
  409bff:	48 83 c4 08          	add    $0x8,%rsp
  409c03:	5b                   	pop    %rbx
  409c04:	c9                   	leaveq 
  409c05:	c3                   	retq   
  409c06:	90                   	nop
  409c07:	90                   	nop

Disassembly of section .fini:

0000000000409c08 <_fini>:
  409c08:	48 83 ec 08          	sub    $0x8,%rsp
  409c0c:	e8 9f 86 ff ff       	callq  4022b0 <__do_global_dtors_aux>
  409c11:	48 83 c4 08          	add    $0x8,%rsp
  409c15:	c3                   	retq   
